---
triple:          'arm64-apple-darwin'
binary-path:     proj4
relocations:
  - { offsetInCU: 0x5E86, offset: 0x5E86, size: 0x8, addend: 0x0, symName: __ZNSt3__124__put_character_sequenceB7v160006IcNS_11char_traitsIcEEEERNS_13basic_ostreamIT_T0_EES7_PKS4_m, symObjAddr: 0x2EB0, symBinAddr: 0x100003F44, symSize: 0x1F4 }
  - { offsetInCU: 0x808D, offset: 0x808D, size: 0x8, addend: 0x0, symName: __ZNSt3__1lsB7v160006INS_11char_traitsIcEEEERNS_13basic_ostreamIcT_EES6_PKc, symObjAddr: 0x710, symBinAddr: 0x1000017A4, symSize: 0x48 }
  - { offsetInCU: 0x80D3, offset: 0x80D3, size: 0x8, addend: 0x0, symName: __ZNSt3__14endlB7v160006IcNS_11char_traitsIcEEEERNS_13basic_ostreamIT_T0_EES7_, symObjAddr: 0x784, symBinAddr: 0x100001818, symSize: 0x58 }
  - { offsetInCU: 0x8113, offset: 0x8113, size: 0x8, addend: 0x0, symName: __ZNSt3__1lsB7v160006IcNS_11char_traitsIcEENS_9allocatorIcEEEERNS_13basic_ostreamIT_T0_EES9_RKNS_12basic_stringIS6_S7_T1_EE, symObjAddr: 0xB38, symBinAddr: 0x100001BCC, symSize: 0x4C }
  - { offsetInCU: 0x8187, offset: 0x8187, size: 0x8, addend: 0x0, symName: __ZNSt3__119__debug_db_insert_cB7v160006INS_6vectorIP5BloonNS_9allocatorIS3_EEEEEEvPT_, symObjAddr: 0x2108, symBinAddr: 0x10000319C, symSize: 0x10 }
  - { offsetInCU: 0x81B8, offset: 0x81B8, size: 0x8, addend: 0x0, symName: __ZNSt3__119__debug_db_insert_cB7v160006INS_6vectorIP6MonkeyNS_9allocatorIS3_EEEEEEvPT_, symObjAddr: 0x2268, symBinAddr: 0x1000032FC, symSize: 0x10 }
  - { offsetInCU: 0x81E9, offset: 0x81E9, size: 0x8, addend: 0x0, symName: __ZNSt3__118__debug_db_erase_cB7v160006INS_6vectorIP5BloonNS_9allocatorIS3_EEEEEEvPT_, symObjAddr: 0x2524, symBinAddr: 0x1000035B8, symSize: 0x10 }
  - { offsetInCU: 0x821A, offset: 0x821A, size: 0x8, addend: 0x0, symName: __ZNSt3__112__to_addressB7v160006IP5BloonEEPT_S4_, symObjAddr: 0x2640, symBinAddr: 0x1000036D4, symSize: 0x14 }
  - { offsetInCU: 0x824F, offset: 0x824F, size: 0x8, addend: 0x0, symName: __ZNSt3__130__libcpp_is_constant_evaluatedB7v160006Ev, symObjAddr: 0x27A4, symBinAddr: 0x100003838, symSize: 0xC }
  - { offsetInCU: 0x826C, offset: 0x826C, size: 0x8, addend: 0x0, symName: __ZNSt3__119__libcpp_deallocateB7v160006EPvmm, symObjAddr: 0x27B0, symBinAddr: 0x100003844, symSize: 0x30 }
  - { offsetInCU: 0x82B4, offset: 0x82B4, size: 0x8, addend: 0x0, symName: __ZNSt3__127__do_deallocate_handle_sizeB7v160006IJEEEvPvmDpT_, symObjAddr: 0x27E0, symBinAddr: 0x100003874, symSize: 0x28 }
  - { offsetInCU: 0x82F2, offset: 0x82F2, size: 0x8, addend: 0x0, symName: __ZNSt3__124__libcpp_operator_deleteB7v160006IJPvEEEvDpT_, symObjAddr: 0x2808, symBinAddr: 0x10000389C, symSize: 0x24 }
  - { offsetInCU: 0x8327, offset: 0x8327, size: 0x8, addend: 0x0, symName: __ZNSt3__118__debug_db_erase_cB7v160006INS_6vectorIP6MonkeyNS_9allocatorIS3_EEEEEEvPT_, symObjAddr: 0x2AA8, symBinAddr: 0x100003B3C, symSize: 0x10 }
  - { offsetInCU: 0x8358, offset: 0x8358, size: 0x8, addend: 0x0, symName: __ZNSt3__112__to_addressB7v160006IP6MonkeyEEPT_S4_, symObjAddr: 0x2BC4, symBinAddr: 0x100003C58, symSize: 0x14 }
  - { offsetInCU: 0x838D, offset: 0x838D, size: 0x8, addend: 0x0, symName: __ZNSt3__19use_facetB7v160006INS_5ctypeIcEEEERKT_RKNS_6localeE, symObjAddr: 0x2E4C, symBinAddr: 0x100003EE0, symSize: 0x2C }
  - { offsetInCU: 0x885C, offset: 0x885C, size: 0x8, addend: 0x0, symName: __ZNSt3__116__pad_and_outputB7v160006IcNS_11char_traitsIcEEEENS_19ostreambuf_iteratorIT_T0_EES6_PKS4_S8_S8_RNS_8ios_baseES4_, symObjAddr: 0x3108, symBinAddr: 0x10000419C, symSize: 0x248 }
  - { offsetInCU: 0x892B, offset: 0x892B, size: 0x8, addend: 0x0, symName: __ZNSt3__119__debug_db_insert_cB7v160006INS_12basic_stringIcNS_11char_traitsIcEENS_9allocatorIcEEEEEEvPT_, symObjAddr: 0x35C4, symBinAddr: 0x100004658, symSize: 0x10 }
  - { offsetInCU: 0x895C, offset: 0x895C, size: 0x8, addend: 0x0, symName: __ZNSt3__112__to_addressB7v160006IKcEEPT_S3_, symObjAddr: 0x3690, symBinAddr: 0x100004724, symSize: 0x14 }
  - { offsetInCU: 0x89C4, offset: 0x89C4, size: 0x8, addend: 0x0, symName: __ZNSt3__118__constexpr_strlenB7v160006EPKc, symObjAddr: 0x3910, symBinAddr: 0x1000049A4, symSize: 0x24 }
  - { offsetInCU: 0x89F0, offset: 0x89F0, size: 0x8, addend: 0x0, symName: __ZNSt3__13maxB7v160006ImEERKT_S3_S3_, symObjAddr: 0x4010, symBinAddr: 0x1000050A4, symSize: 0x2C }
  - { offsetInCU: 0x8A33, offset: 0x8A33, size: 0x8, addend: 0x0, symName: __ZNSt3__13minB7v160006ImEERKT_S3_S3_, symObjAddr: 0x403C, symBinAddr: 0x1000050D0, symSize: 0x2C }
  - { offsetInCU: 0x8C77, offset: 0x8C77, size: 0x8, addend: 0x0, symName: __ZNSt3__13minB7v160006ImNS_6__lessImmEEEERKT_S5_S5_T0_, symObjAddr: 0x40C8, symBinAddr: 0x10000515C, symSize: 0x54 }
  - { offsetInCU: 0x8D0C, offset: 0x8D0C, size: 0x8, addend: 0x0, symName: __ZNSt3__120__throw_length_errorB7v160006EPKc, symObjAddr: 0x41A4, symBinAddr: 0x100005238, symSize: 0x64 }
  - { offsetInCU: 0x8D34, offset: 0x8D34, size: 0x8, addend: 0x0, symName: __ZNSt3__13maxB7v160006ImNS_6__lessImmEEEERKT_S5_S5_T0_, symObjAddr: 0x4288, symBinAddr: 0x10000531C, symSize: 0x54 }
  - { offsetInCU: 0x8D8E, offset: 0x8D8E, size: 0x8, addend: 0x0, symName: __ZNSt3__119__allocate_at_leastB7v160006INS_9allocatorIP6MonkeyEEEENS_19__allocation_resultINS_16allocator_traitsIT_E7pointerEEERS7_m, symObjAddr: 0x43EC, symBinAddr: 0x100005480, symSize: 0x40 }
  - { offsetInCU: 0x8DD1, offset: 0x8DD1, size: 0x8, addend: 0x0, symName: __ZNSt3__117__libcpp_allocateB7v160006Emm, symObjAddr: 0x459C, symBinAddr: 0x100005630, symSize: 0x28 }
  - { offsetInCU: 0x8E0E, offset: 0x8E0E, size: 0x8, addend: 0x0, symName: __ZNSt3__121__libcpp_operator_newB7v160006IJmEEEPvDpT_, symObjAddr: 0x45C4, symBinAddr: 0x100005658, symSize: 0x24 }
  - { offsetInCU: 0x8E47, offset: 0x8E47, size: 0x8, addend: 0x0, symName: __ZNSt3__142__uninitialized_allocator_move_if_noexceptB7v160006INS_9allocatorIP6MonkeyEENS_16reverse_iteratorIPS3_EES7_S3_vEET1_RT_T0_SB_S8_, symObjAddr: 0x464C, symBinAddr: 0x1000056E0, symSize: 0xE8 }
  - { offsetInCU: 0x8EC4, offset: 0x8EC4, size: 0x8, addend: 0x0, symName: __ZNSt3__14swapB7v160006IPP6MonkeyEEvRT_S5_, symObjAddr: 0x4780, symBinAddr: 0x100005814, symSize: 0x3C }
  - { offsetInCU: 0x8F15, offset: 0x8F15, size: 0x8, addend: 0x0, symName: __ZNSt3__125__debug_db_invalidate_allB7v160006INS_6vectorIP6MonkeyNS_9allocatorIS3_EEEEEEvPT_, symObjAddr: 0x4868, symBinAddr: 0x1000058FC, symSize: 0x10 }
  - { offsetInCU: 0x8F46, offset: 0x8F46, size: 0x8, addend: 0x0, symName: __ZNSt3__1neB7v160006IPP6MonkeyS3_EEbRKNS_16reverse_iteratorIT_EERKNS4_IT0_EE, symObjAddr: 0x4878, symBinAddr: 0x10000590C, symSize: 0x48 }
  - { offsetInCU: 0x8FB7, offset: 0x8FB7, size: 0x8, addend: 0x0, symName: __ZNSt3__114__construct_atB7v160006IP6MonkeyJS2_EPS2_EEPT_S5_DpOT0_, symObjAddr: 0x48C0, symBinAddr: 0x100005954, symSize: 0x2C }
  - { offsetInCU: 0x9027, offset: 0x9027, size: 0x8, addend: 0x0, symName: __ZNSt3__112__to_addressB7v160006INS_16reverse_iteratorIPP6MonkeyEEvEENS_5decayIDTclsr19__to_address_helperIT_EE6__callclsr3stdE7declvalIRKS7_EEEEE4typeES9_, symObjAddr: 0x48EC, symBinAddr: 0x100005980, symSize: 0x24 }
  - { offsetInCU: 0x905D, offset: 0x905D, size: 0x8, addend: 0x0, symName: __ZNSt3__14moveB7v160006INS_16reverse_iteratorIPP6MonkeyEES5_EET0_T_S7_S6_, symObjAddr: 0x4958, symBinAddr: 0x1000059EC, symSize: 0x78 }
  - { offsetInCU: 0x90E0, offset: 0x90E0, size: 0x8, addend: 0x0, symName: __ZNSt3__16__moveB7v160006INS_17_ClassicAlgPolicyENS_16reverse_iteratorIPP6MonkeyEES6_S6_EENS_4pairIT0_T2_EES8_T1_S9_, symObjAddr: 0x4A40, symBinAddr: 0x100005AD4, symSize: 0x64 }
  - { offsetInCU: 0x914C, offset: 0x914C, size: 0x8, addend: 0x0, symName: __ZNSt3__123__dispatch_copy_or_moveB7v160006INS_17_ClassicAlgPolicyENS_11__move_loopIS1_EENS_14__move_trivialENS_16reverse_iteratorIPP6MonkeyEES9_S9_EENS_4pairIT2_T4_EESB_T3_SC_, symObjAddr: 0x4AA4, symBinAddr: 0x100005B38, symSize: 0x7C }
  - { offsetInCU: 0x91CA, offset: 0x91CA, size: 0x8, addend: 0x0, symName: __ZNSt3__121__unwrap_and_dispatchB7v160006INS_10__overloadINS_11__move_loopINS_17_ClassicAlgPolicyEEENS_14__move_trivialEEENS_16reverse_iteratorIPP6MonkeyEESB_SB_Li0EEENS_4pairIT0_T2_EESD_T1_SE_, symObjAddr: 0x4B20, symBinAddr: 0x100005BB4, symSize: 0x12C }
  - { offsetInCU: 0x925A, offset: 0x925A, size: 0x8, addend: 0x0, symName: __ZNSt3__114__unwrap_rangeB7v160006INS_16reverse_iteratorIPP6MonkeyEES5_EENS_4pairIT0_S7_EET_S9_, symObjAddr: 0x4C4C, symBinAddr: 0x100005CE0, symSize: 0x84 }
  - { offsetInCU: 0x93ED, offset: 0x93ED, size: 0x8, addend: 0x0, symName: __ZNSt3__113__unwrap_iterB7v160006INS_16reverse_iteratorIPP6MonkeyEENS_18__unwrap_iter_implIS5_Lb0EEELi0EEEDTclsrT0_8__unwrapclsr3stdE7declvalIT_EEEES9_, symObjAddr: 0x4D70, symBinAddr: 0x100005E04, symSize: 0x44 }
  - { offsetInCU: 0x9431, offset: 0x9431, size: 0x8, addend: 0x0, symName: __ZNSt3__19make_pairB7v160006INS_16reverse_iteratorIPP6MonkeyEES5_EENS_4pairINS_18__unwrap_ref_decayIT_E4typeENS7_IT0_E4typeEEEOS8_OSB_, symObjAddr: 0x4DB4, symBinAddr: 0x100005E48, symSize: 0x38 }
  - { offsetInCU: 0x9480, offset: 0x9480, size: 0x8, addend: 0x0, symName: __ZNSt3__114__rewrap_rangeB7v160006INS_16reverse_iteratorIPP6MonkeyEES5_EET_S6_T0_, symObjAddr: 0x4DEC, symBinAddr: 0x100005E80, symSize: 0x5C }
  - { offsetInCU: 0x94CC, offset: 0x94CC, size: 0x8, addend: 0x0, symName: __ZNSt3__113__rewrap_iterB7v160006INS_16reverse_iteratorIPP6MonkeyEES5_NS_18__unwrap_iter_implIS5_Lb0EEEEET_S8_T0_, symObjAddr: 0x4E48, symBinAddr: 0x100005EDC, symSize: 0x88 }
  - { offsetInCU: 0x9606, offset: 0x9606, size: 0x8, addend: 0x0, symName: __ZNSt3__119__allocate_at_leastB7v160006INS_9allocatorIP5BloonEEEENS_19__allocation_resultINS_16allocator_traitsIT_E7pointerEEERS7_m, symObjAddr: 0x594C, symBinAddr: 0x1000069E0, symSize: 0x40 }
  - { offsetInCU: 0x9649, offset: 0x9649, size: 0x8, addend: 0x0, symName: __ZNSt3__142__uninitialized_allocator_move_if_noexceptB7v160006INS_9allocatorIP5BloonEENS_16reverse_iteratorIPS3_EES7_S3_vEET1_RT_T0_SB_S8_, symObjAddr: 0x5B2C, symBinAddr: 0x100006BC0, symSize: 0xE8 }
  - { offsetInCU: 0x96C6, offset: 0x96C6, size: 0x8, addend: 0x0, symName: __ZNSt3__14swapB7v160006IPP5BloonEEvRT_S5_, symObjAddr: 0x5C60, symBinAddr: 0x100006CF4, symSize: 0x3C }
  - { offsetInCU: 0x9717, offset: 0x9717, size: 0x8, addend: 0x0, symName: __ZNSt3__125__debug_db_invalidate_allB7v160006INS_6vectorIP5BloonNS_9allocatorIS3_EEEEEEvPT_, symObjAddr: 0x5D48, symBinAddr: 0x100006DDC, symSize: 0x10 }
  - { offsetInCU: 0x9748, offset: 0x9748, size: 0x8, addend: 0x0, symName: __ZNSt3__1neB7v160006IPP5BloonS3_EEbRKNS_16reverse_iteratorIT_EERKNS4_IT0_EE, symObjAddr: 0x5D58, symBinAddr: 0x100006DEC, symSize: 0x48 }
  - { offsetInCU: 0x97B9, offset: 0x97B9, size: 0x8, addend: 0x0, symName: __ZNSt3__114__construct_atB7v160006IP5BloonJS2_EPS2_EEPT_S5_DpOT0_, symObjAddr: 0x5DA0, symBinAddr: 0x100006E34, symSize: 0x2C }
  - { offsetInCU: 0x9829, offset: 0x9829, size: 0x8, addend: 0x0, symName: __ZNSt3__112__to_addressB7v160006INS_16reverse_iteratorIPP5BloonEEvEENS_5decayIDTclsr19__to_address_helperIT_EE6__callclsr3stdE7declvalIRKS7_EEEEE4typeES9_, symObjAddr: 0x5DCC, symBinAddr: 0x100006E60, symSize: 0x24 }
  - { offsetInCU: 0x985F, offset: 0x985F, size: 0x8, addend: 0x0, symName: __ZNSt3__14moveB7v160006INS_16reverse_iteratorIPP5BloonEES5_EET0_T_S7_S6_, symObjAddr: 0x5E38, symBinAddr: 0x100006ECC, symSize: 0x78 }
  - { offsetInCU: 0x98E2, offset: 0x98E2, size: 0x8, addend: 0x0, symName: __ZNSt3__16__moveB7v160006INS_17_ClassicAlgPolicyENS_16reverse_iteratorIPP5BloonEES6_S6_EENS_4pairIT0_T2_EES8_T1_S9_, symObjAddr: 0x5F20, symBinAddr: 0x100006FB4, symSize: 0x64 }
  - { offsetInCU: 0x994E, offset: 0x994E, size: 0x8, addend: 0x0, symName: __ZNSt3__123__dispatch_copy_or_moveB7v160006INS_17_ClassicAlgPolicyENS_11__move_loopIS1_EENS_14__move_trivialENS_16reverse_iteratorIPP5BloonEES9_S9_EENS_4pairIT2_T4_EESB_T3_SC_, symObjAddr: 0x5F84, symBinAddr: 0x100007018, symSize: 0x7C }
  - { offsetInCU: 0x99CC, offset: 0x99CC, size: 0x8, addend: 0x0, symName: __ZNSt3__121__unwrap_and_dispatchB7v160006INS_10__overloadINS_11__move_loopINS_17_ClassicAlgPolicyEEENS_14__move_trivialEEENS_16reverse_iteratorIPP5BloonEESB_SB_Li0EEENS_4pairIT0_T2_EESD_T1_SE_, symObjAddr: 0x6000, symBinAddr: 0x100007094, symSize: 0x12C }
  - { offsetInCU: 0x9A5C, offset: 0x9A5C, size: 0x8, addend: 0x0, symName: __ZNSt3__114__unwrap_rangeB7v160006INS_16reverse_iteratorIPP5BloonEES5_EENS_4pairIT0_S7_EET_S9_, symObjAddr: 0x612C, symBinAddr: 0x1000071C0, symSize: 0x84 }
  - { offsetInCU: 0x9B55, offset: 0x9B55, size: 0x8, addend: 0x0, symName: __ZNSt3__113__unwrap_iterB7v160006INS_16reverse_iteratorIPP5BloonEENS_18__unwrap_iter_implIS5_Lb0EEELi0EEEDTclsrT0_8__unwrapclsr3stdE7declvalIT_EEEES9_, symObjAddr: 0x6250, symBinAddr: 0x1000072E4, symSize: 0x44 }
  - { offsetInCU: 0x9B99, offset: 0x9B99, size: 0x8, addend: 0x0, symName: __ZNSt3__19make_pairB7v160006INS_16reverse_iteratorIPP5BloonEES5_EENS_4pairINS_18__unwrap_ref_decayIT_E4typeENS7_IT0_E4typeEEEOS8_OSB_, symObjAddr: 0x6294, symBinAddr: 0x100007328, symSize: 0x38 }
  - { offsetInCU: 0x9BE8, offset: 0x9BE8, size: 0x8, addend: 0x0, symName: __ZNSt3__114__rewrap_rangeB7v160006INS_16reverse_iteratorIPP5BloonEES5_EET_S6_T0_, symObjAddr: 0x62CC, symBinAddr: 0x100007360, symSize: 0x5C }
  - { offsetInCU: 0x9C34, offset: 0x9C34, size: 0x8, addend: 0x0, symName: __ZNSt3__113__rewrap_iterB7v160006INS_16reverse_iteratorIPP5BloonEES5_NS_18__unwrap_iter_implIS5_Lb0EEEEET_S8_T0_, symObjAddr: 0x6328, symBinAddr: 0x1000073BC, symSize: 0x88 }
  - { offsetInCU: 0x9CF5, offset: 0x9CF5, size: 0x8, addend: 0x0, symName: __ZNSt3__122__make_exception_guardB7v160006INS_6vectorIP5BloonNS_9allocatorIS3_EEE16__destroy_vectorEEENS_28__exception_guard_exceptionsIT_EES9_, symObjAddr: 0x681C, symBinAddr: 0x1000078B0, symSize: 0x40 }
  - { offsetInCU: 0x9D2A, offset: 0x9D2A, size: 0x8, addend: 0x0, symName: __ZNSt3__130__uninitialized_allocator_copyB7v160006INS_9allocatorIP5BloonEEPS3_S5_S5_EET2_RT_T0_T1_S6_, symObjAddr: 0x6A98, symBinAddr: 0x100007B2C, symSize: 0xFC }
  - { offsetInCU: 0x9DC8, offset: 0x9DC8, size: 0x8, addend: 0x0, symName: __ZNSt3__122__make_exception_guardB7v160006INS_29_AllocatorDestroyRangeReverseINS_9allocatorIP5BloonEEPS4_EEEENS_28__exception_guard_exceptionsIT_EES9_, symObjAddr: 0x6B94, symBinAddr: 0x100007C28, symSize: 0x4C }
  - { offsetInCU: 0x9DFE, offset: 0x9DFE, size: 0x8, addend: 0x0, symName: __ZNSt3__119__allocator_destroyB7v160006INS_9allocatorIP5BloonEENS_16reverse_iteratorIPS3_EES7_EEvRT_T0_T1_, symObjAddr: 0x6E14, symBinAddr: 0x100007EA8, symSize: 0x70 }
  - { offsetInCU: 0x9E61, offset: 0x9E61, size: 0x8, addend: 0x0, symName: __ZNSt3__1miB7v160006IPKP5BloonS4_EENS_11__wrap_iterIT_E15difference_typeERKS7_RKNS5_IT0_EE, symObjAddr: 0x6F88, symBinAddr: 0x10000801C, symSize: 0x48 }
  - { offsetInCU: 0x9EAD, offset: 0x9EAD, size: 0x8, addend: 0x0, symName: __ZNSt3__14moveB7v160006IPP5BloonS3_EET0_T_S5_S4_, symObjAddr: 0x7084, symBinAddr: 0x100008118, symSize: 0x40 }
  - { offsetInCU: 0x9F07, offset: 0x9F07, size: 0x8, addend: 0x0, symName: __ZNSt3__16__moveB7v160006INS_17_ClassicAlgPolicyEPP5BloonS4_S4_EENS_4pairIT0_T2_EES6_T1_S7_, symObjAddr: 0x7268, symBinAddr: 0x1000082FC, symSize: 0x44 }
  - { offsetInCU: 0x9F73, offset: 0x9F73, size: 0x8, addend: 0x0, symName: __ZNSt3__123__dispatch_copy_or_moveB7v160006INS_17_ClassicAlgPolicyENS_11__move_loopIS1_EENS_14__move_trivialEPP5BloonS7_S7_EENS_4pairIT2_T4_EES9_T3_SA_, symObjAddr: 0x72AC, symBinAddr: 0x100008340, symSize: 0x54 }
  - { offsetInCU: 0x9FF1, offset: 0x9FF1, size: 0x8, addend: 0x0, symName: __ZNSt3__121__unwrap_and_dispatchB7v160006INS_10__overloadINS_11__move_loopINS_17_ClassicAlgPolicyEEENS_14__move_trivialEEEPP5BloonS9_S9_Li0EEENS_4pairIT0_T2_EESB_T1_SC_, symObjAddr: 0x7300, symBinAddr: 0x100008394, symSize: 0xB4 }
  - { offsetInCU: 0xA07F, offset: 0xA07F, size: 0x8, addend: 0x0, symName: __ZNSt3__114__unwrap_rangeB7v160006IPP5BloonS3_EENS_4pairIT0_S5_EET_S7_, symObjAddr: 0x73B4, symBinAddr: 0x100008448, symSize: 0x60 }
  - { offsetInCU: 0xA1BE, offset: 0xA1BE, size: 0x8, addend: 0x0, symName: __ZNSt3__113__unwrap_iterB7v160006IPP5BloonNS_18__unwrap_iter_implIS3_Lb1EEELi0EEEDTclsrT0_8__unwrapclsr3stdE7declvalIT_EEEES7_, symObjAddr: 0x745C, symBinAddr: 0x1000084F0, symSize: 0x24 }
  - { offsetInCU: 0xA202, offset: 0xA202, size: 0x8, addend: 0x0, symName: __ZNSt3__19make_pairB7v160006IPP5BloonS3_EENS_4pairINS_18__unwrap_ref_decayIT_E4typeENS5_IT0_E4typeEEEOS6_OS9_, symObjAddr: 0x7480, symBinAddr: 0x100008514, symSize: 0x38 }
  - { offsetInCU: 0xA251, offset: 0xA251, size: 0x8, addend: 0x0, symName: __ZNSt3__114__rewrap_rangeB7v160006IPP5BloonS3_EET_S4_T0_, symObjAddr: 0x74B8, symBinAddr: 0x10000854C, symSize: 0x2C }
  - { offsetInCU: 0xA29D, offset: 0xA29D, size: 0x8, addend: 0x0, symName: __ZNSt3__113__rewrap_iterB7v160006IPP5BloonS3_NS_18__unwrap_iter_implIS3_Lb1EEEEET_S6_T0_, symObjAddr: 0x74E4, symBinAddr: 0x100008578, symSize: 0x50 }
  - { offsetInCU: 0xA2F2, offset: 0xA2F2, size: 0x8, addend: 0x0, symName: __ZNSt3__119__copy_trivial_implB7v160006IP5BloonS2_EENS_4pairIPT_PT0_EES5_S5_S7_, symObjAddr: 0x7534, symBinAddr: 0x1000085C8, symSize: 0x84 }
  - { offsetInCU: 0xA35A, offset: 0xA35A, size: 0x8, addend: 0x0, symName: __ZNSt3__19make_pairB7v160006IRPP5BloonS3_EENS_4pairINS_18__unwrap_ref_decayIT_E4typeENS6_IT0_E4typeEEEOS7_OSA_, symObjAddr: 0x75B8, symBinAddr: 0x10000864C, symSize: 0x38 }
  - { offsetInCU: 0xA603, offset: 0xA603, size: 0x8, addend: 0x0, symName: __ZSt28__throw_bad_array_new_lengthB7v160006v, symObjAddr: 0x4568, symBinAddr: 0x1000055FC, symSize: 0x34 }
  - { offsetInCU: 0xAF5C, offset: 0xAF5C, size: 0x8, addend: 0x0, symName: __ZNSt3__16vectorIP6MonkeyNS_9allocatorIS2_EEE26__swap_out_circular_bufferERNS_14__split_bufferIS2_RS4_EE, symObjAddr: 0x3E3C, symBinAddr: 0x100004ED0, symSize: 0x118 }
  - { offsetInCU: 0xAFB1, offset: 0xAFB1, size: 0x8, addend: 0x0, symName: __ZNSt3__16vectorIP5BloonNS_9allocatorIS2_EEE26__swap_out_circular_bufferERNS_14__split_bufferIS2_RS4_EE, symObjAddr: 0x55D0, symBinAddr: 0x100006664, symSize: 0x118 }
  - { offsetInCU: 0xD393, offset: 0xD393, size: 0x8, addend: 0x0, symName: __ZN4GameC2Ev, symObjAddr: 0x0, symBinAddr: 0x100001094, symSize: 0x80 }
  - { offsetInCU: 0xD3BE, offset: 0xD3BE, size: 0x8, addend: 0x0, symName: __ZNSt3__16vectorIP5BloonNS_9allocatorIS2_EEEC1B7v160006Ev, symObjAddr: 0x80, symBinAddr: 0x100001114, symSize: 0x2C }
  - { offsetInCU: 0xD3E7, offset: 0xD3E7, size: 0x8, addend: 0x0, symName: __ZNSt3__16vectorIP6MonkeyNS_9allocatorIS2_EEEC1B7v160006Ev, symObjAddr: 0xAC, symBinAddr: 0x100001140, symSize: 0x2C }
  - { offsetInCU: 0xD410, offset: 0xD410, size: 0x8, addend: 0x0, symName: __ZNSt3__16vectorIP5BloonNS_9allocatorIS2_EEED1B7v160006Ev, symObjAddr: 0xD8, symBinAddr: 0x10000116C, symSize: 0x2C }
  - { offsetInCU: 0xD439, offset: 0xD439, size: 0x8, addend: 0x0, symName: __ZN4GameC1Ev, symObjAddr: 0x110, symBinAddr: 0x1000011A4, symSize: 0x2C }
  - { offsetInCU: 0xD464, offset: 0xD464, size: 0x8, addend: 0x0, symName: __ZN4GameD2Ev, symObjAddr: 0x13C, symBinAddr: 0x1000011D0, symSize: 0x198 }
  - { offsetInCU: 0xD4C9, offset: 0xD4C9, size: 0x8, addend: 0x0, symName: __ZNKSt3__16vectorIP5BloonNS_9allocatorIS2_EEE4sizeB7v160006Ev, symObjAddr: 0x2D4, symBinAddr: 0x100001368, symSize: 0x28 }
  - { offsetInCU: 0xD4EE, offset: 0xD4EE, size: 0x8, addend: 0x0, symName: __ZNSt3__16vectorIP5BloonNS_9allocatorIS2_EEEixB7v160006Em, symObjAddr: 0x2FC, symBinAddr: 0x100001390, symSize: 0x24 }
  - { offsetInCU: 0xD524, offset: 0xD524, size: 0x8, addend: 0x0, symName: __ZNKSt3__16vectorIP6MonkeyNS_9allocatorIS2_EEE4sizeB7v160006Ev, symObjAddr: 0x320, symBinAddr: 0x1000013B4, symSize: 0x28 }
  - { offsetInCU: 0xD549, offset: 0xD549, size: 0x8, addend: 0x0, symName: __ZNSt3__16vectorIP6MonkeyNS_9allocatorIS2_EEEixB7v160006Em, symObjAddr: 0x348, symBinAddr: 0x1000013DC, symSize: 0x24 }
  - { offsetInCU: 0xD57F, offset: 0xD57F, size: 0x8, addend: 0x0, symName: __ZNSt3__16vectorIP6MonkeyNS_9allocatorIS2_EEED1B7v160006Ev, symObjAddr: 0x36C, symBinAddr: 0x100001400, symSize: 0x2C }
  - { offsetInCU: 0xD5A8, offset: 0xD5A8, size: 0x8, addend: 0x0, symName: __ZN4GameD1Ev, symObjAddr: 0x398, symBinAddr: 0x10000142C, symSize: 0x2C }
  - { offsetInCU: 0xD5D3, offset: 0xD5D3, size: 0x8, addend: 0x0, symName: __ZN4Game8PrintMapEv, symObjAddr: 0x3C4, symBinAddr: 0x100001458, symSize: 0x34C }
  - { offsetInCU: 0xD67C, offset: 0xD67C, size: 0x8, addend: 0x0, symName: __ZNSt3__113basic_ostreamIcNS_11char_traitsIcEEElsB7v160006EPFRS3_S4_E, symObjAddr: 0x758, symBinAddr: 0x1000017EC, symSize: 0x2C }
  - { offsetInCU: 0xD6AF, offset: 0xD6AF, size: 0x8, addend: 0x0, symName: __ZN4Game13ImproveMonkeyEv, symObjAddr: 0x7DC, symBinAddr: 0x100001870, symSize: 0x330 }
  - { offsetInCU: 0xD715, offset: 0xD715, size: 0x8, addend: 0x0, symName: __ZNSt3__19basic_iosIcNS_11char_traitsIcEEE5clearB7v160006Ej, symObjAddr: 0xB0C, symBinAddr: 0x100001BA0, symSize: 0x2C }
  - { offsetInCU: 0xD749, offset: 0xD749, size: 0x8, addend: 0x0, symName: __ZN4Game9BuyMonkeyEv, symObjAddr: 0xB84, symBinAddr: 0x100001C18, symSize: 0x27C }
  - { offsetInCU: 0xD77E, offset: 0xD77E, size: 0x8, addend: 0x0, symName: __ZN4Game11PlaceMonkeyEi, symObjAddr: 0xE00, symBinAddr: 0x100001E94, symSize: 0x404 }
  - { offsetInCU: 0xD816, offset: 0xD816, size: 0x8, addend: 0x0, symName: __ZNSt3__112basic_stringIcNS_11char_traitsIcEENS_9allocatorIcEEEC1B7v160006IDnEEPKc, symObjAddr: 0x1204, symBinAddr: 0x100002298, symSize: 0x34 }
  - { offsetInCU: 0xD852, offset: 0xD852, size: 0x8, addend: 0x0, symName: __ZNSt3__16vectorIP6MonkeyNS_9allocatorIS2_EEE9push_backB7v160006ERKS2_, symObjAddr: 0x1238, symBinAddr: 0x1000022CC, symSize: 0x6C }
  - { offsetInCU: 0xD888, offset: 0xD888, size: 0x8, addend: 0x0, symName: __ZN4Game9StartGameEv, symObjAddr: 0x12A4, symBinAddr: 0x100002338, symSize: 0xCC }
  - { offsetInCU: 0xD8BD, offset: 0xD8BD, size: 0x8, addend: 0x0, symName: __ZN4Game8MainMenuEv, symObjAddr: 0x1370, symBinAddr: 0x100002404, symSize: 0x1AC }
  - { offsetInCU: 0xD8F2, offset: 0xD8F2, size: 0x8, addend: 0x0, symName: __ZN4Game9PlayRoundEv, symObjAddr: 0x1534, symBinAddr: 0x1000025C8, symSize: 0x140 }
  - { offsetInCU: 0xD956, offset: 0xD956, size: 0x8, addend: 0x0, symName: __ZN4Game5StatsEv, symObjAddr: 0x1674, symBinAddr: 0x100002708, symSize: 0xDC }
  - { offsetInCU: 0xD97E, offset: 0xD97E, size: 0x8, addend: 0x0, symName: __ZN4Game14PopulateBloonsEv, symObjAddr: 0x1750, symBinAddr: 0x1000027E4, symSize: 0x14C }
  - { offsetInCU: 0xD9D0, offset: 0xD9D0, size: 0x8, addend: 0x0, symName: __ZN4Game13ResolveBattleEv, symObjAddr: 0x189C, symBinAddr: 0x100002930, symSize: 0xF4 }
  - { offsetInCU: 0xDA0D, offset: 0xDA0D, size: 0x8, addend: 0x0, symName: __ZN4Game12RemovePoppedEv, symObjAddr: 0x1990, symBinAddr: 0x100002A24, symSize: 0x1C4 }
  - { offsetInCU: 0xDAAD, offset: 0xDAAD, size: 0x8, addend: 0x0, symName: __ZN4Game10MoveBloonsEv, symObjAddr: 0x1B54, symBinAddr: 0x100002BE8, symSize: 0xF4 }
  - { offsetInCU: 0xDAF3, offset: 0xDAF3, size: 0x8, addend: 0x0, symName: __ZN4Game9CheckPathEv, symObjAddr: 0x1C48, symBinAddr: 0x100002CDC, symSize: 0x23C }
  - { offsetInCU: 0xDB92, offset: 0xDB92, size: 0x8, addend: 0x0, symName: __ZNSt3__16vectorIP5BloonNS_9allocatorIS2_EEE9push_backB7v160006ERKS2_, symObjAddr: 0x1E84, symBinAddr: 0x100002F18, symSize: 0x6C }
  - { offsetInCU: 0xDBC8, offset: 0xDBC8, size: 0x8, addend: 0x0, symName: __ZNSt3__16vectorIP5BloonNS_9allocatorIS2_EEEC1ERKS5_, symObjAddr: 0x1EF0, symBinAddr: 0x100002F84, symSize: 0x34 }
  - { offsetInCU: 0xDC01, offset: 0xDC01, size: 0x8, addend: 0x0, symName: __ZNSt3__16vectorIP5BloonNS_9allocatorIS2_EEE5eraseB7v160006ENS_11__wrap_iterIPKS2_EE, symObjAddr: 0x1F24, symBinAddr: 0x100002FB8, symSize: 0xB4 }
  - { offsetInCU: 0xDC54, offset: 0xDC54, size: 0x8, addend: 0x0, symName: __ZNSt3__16vectorIP5BloonNS_9allocatorIS2_EEE5beginB7v160006Ev, symObjAddr: 0x1FD8, symBinAddr: 0x10000306C, symSize: 0x30 }
  - { offsetInCU: 0xDC7B, offset: 0xDC7B, size: 0x8, addend: 0x0, symName: __ZNKSt3__111__wrap_iterIPP5BloonEplB7v160006El, symObjAddr: 0x2008, symBinAddr: 0x10000309C, symSize: 0x3C }
  - { offsetInCU: 0xDCC6, offset: 0xDCC6, size: 0x8, addend: 0x0, symName: __ZNSt3__111__wrap_iterIPKP5BloonEC1B7v160006IPS2_EERKNS0_IT_EEPNS_9enable_ifIXsr14is_convertibleIS8_S4_EE5valueEvE4typeE, symObjAddr: 0x2044, symBinAddr: 0x1000030D8, symSize: 0x3C }
  - { offsetInCU: 0xDD11, offset: 0xDD11, size: 0x8, addend: 0x0, symName: __ZNSt3__16vectorIP5BloonNS_9allocatorIS2_EEEC2B7v160006Ev, symObjAddr: 0x2080, symBinAddr: 0x100003114, symSize: 0x4C }
  - { offsetInCU: 0xDD44, offset: 0xDD44, size: 0x8, addend: 0x0, symName: __ZNSt3__117__compressed_pairIPP5BloonNS_9allocatorIS2_EEEC1B7v160006IDnNS_18__default_init_tagEEEOT_OT0_, symObjAddr: 0x20CC, symBinAddr: 0x100003160, symSize: 0x3C }
  - { offsetInCU: 0xDD9B, offset: 0xDD9B, size: 0x8, addend: 0x0, symName: __ZNSt3__117__compressed_pairIPP5BloonNS_9allocatorIS2_EEEC2B7v160006IDnNS_18__default_init_tagEEEOT_OT0_, symObjAddr: 0x2118, symBinAddr: 0x1000031AC, symSize: 0x40 }
  - { offsetInCU: 0xDDF2, offset: 0xDDF2, size: 0x8, addend: 0x0, symName: __ZNSt3__122__compressed_pair_elemIPP5BloonLi0ELb0EEC2B7v160006IDnvEEOT_, symObjAddr: 0x2158, symBinAddr: 0x1000031EC, symSize: 0x1C }
  - { offsetInCU: 0xDE33, offset: 0xDE33, size: 0x8, addend: 0x0, symName: __ZNSt3__122__compressed_pair_elemINS_9allocatorIP5BloonEELi1ELb1EEC2B7v160006ENS_18__default_init_tagE, symObjAddr: 0x2174, symBinAddr: 0x100003208, symSize: 0x2C }
  - { offsetInCU: 0xDE67, offset: 0xDE67, size: 0x8, addend: 0x0, symName: __ZNSt3__19allocatorIP5BloonEC2B7v160006Ev, symObjAddr: 0x21A0, symBinAddr: 0x100003234, symSize: 0x2C }
  - { offsetInCU: 0xDE90, offset: 0xDE90, size: 0x8, addend: 0x0, symName: __ZNSt3__116__non_trivial_ifILb1ENS_9allocatorIP5BloonEEEC2B7v160006Ev, symObjAddr: 0x21CC, symBinAddr: 0x100003260, symSize: 0x14 }
  - { offsetInCU: 0xDEB9, offset: 0xDEB9, size: 0x8, addend: 0x0, symName: __ZNSt3__16vectorIP6MonkeyNS_9allocatorIS2_EEEC2B7v160006Ev, symObjAddr: 0x21E0, symBinAddr: 0x100003274, symSize: 0x4C }
  - { offsetInCU: 0xDEE2, offset: 0xDEE2, size: 0x8, addend: 0x0, symName: __ZNSt3__117__compressed_pairIPP6MonkeyNS_9allocatorIS2_EEEC1B7v160006IDnNS_18__default_init_tagEEEOT_OT0_, symObjAddr: 0x222C, symBinAddr: 0x1000032C0, symSize: 0x3C }
  - { offsetInCU: 0xDF39, offset: 0xDF39, size: 0x8, addend: 0x0, symName: __ZNSt3__117__compressed_pairIPP6MonkeyNS_9allocatorIS2_EEEC2B7v160006IDnNS_18__default_init_tagEEEOT_OT0_, symObjAddr: 0x2278, symBinAddr: 0x10000330C, symSize: 0x40 }
  - { offsetInCU: 0xDF90, offset: 0xDF90, size: 0x8, addend: 0x0, symName: __ZNSt3__122__compressed_pair_elemIPP6MonkeyLi0ELb0EEC2B7v160006IDnvEEOT_, symObjAddr: 0x22B8, symBinAddr: 0x10000334C, symSize: 0x1C }
  - { offsetInCU: 0xDFD1, offset: 0xDFD1, size: 0x8, addend: 0x0, symName: __ZNSt3__122__compressed_pair_elemINS_9allocatorIP6MonkeyEELi1ELb1EEC2B7v160006ENS_18__default_init_tagE, symObjAddr: 0x22D4, symBinAddr: 0x100003368, symSize: 0x2C }
  - { offsetInCU: 0xE005, offset: 0xE005, size: 0x8, addend: 0x0, symName: __ZNSt3__19allocatorIP6MonkeyEC2B7v160006Ev, symObjAddr: 0x2300, symBinAddr: 0x100003394, symSize: 0x2C }
  - { offsetInCU: 0xE02E, offset: 0xE02E, size: 0x8, addend: 0x0, symName: __ZNSt3__116__non_trivial_ifILb1ENS_9allocatorIP6MonkeyEEEC2B7v160006Ev, symObjAddr: 0x232C, symBinAddr: 0x1000033C0, symSize: 0x14 }
  - { offsetInCU: 0xE057, offset: 0xE057, size: 0x8, addend: 0x0, symName: __ZNSt3__16vectorIP5BloonNS_9allocatorIS2_EEED2B7v160006Ev, symObjAddr: 0x2340, symBinAddr: 0x1000033D4, symSize: 0x3C }
  - { offsetInCU: 0xE080, offset: 0xE080, size: 0x8, addend: 0x0, symName: __ZNSt3__16vectorIP5BloonNS_9allocatorIS2_EEE16__destroy_vectorC1ERS5_, symObjAddr: 0x237C, symBinAddr: 0x100003410, symSize: 0x34 }
  - { offsetInCU: 0xE0B8, offset: 0xE0B8, size: 0x8, addend: 0x0, symName: __ZNSt3__16vectorIP5BloonNS_9allocatorIS2_EEE16__destroy_vectorclB7v160006Ev, symObjAddr: 0x23B0, symBinAddr: 0x100003444, symSize: 0x9C }
  - { offsetInCU: 0xE0DD, offset: 0xE0DD, size: 0x8, addend: 0x0, symName: __ZNSt3__16vectorIP5BloonNS_9allocatorIS2_EEE16__destroy_vectorC2ERS5_, symObjAddr: 0x244C, symBinAddr: 0x1000034E0, symSize: 0x20 }
  - { offsetInCU: 0xE115, offset: 0xE115, size: 0x8, addend: 0x0, symName: __ZNKSt3__16vectorIP5BloonNS_9allocatorIS2_EEE17__annotate_deleteB7v160006Ev, symObjAddr: 0x246C, symBinAddr: 0x100003500, symSize: 0xB8 }
  - { offsetInCU: 0xE13A, offset: 0xE13A, size: 0x8, addend: 0x0, symName: __ZNSt3__16vectorIP5BloonNS_9allocatorIS2_EEE7__clearB7v160006Ev, symObjAddr: 0x2534, symBinAddr: 0x1000035C8, symSize: 0x28 }
  - { offsetInCU: 0xE15F, offset: 0xE15F, size: 0x8, addend: 0x0, symName: __ZNSt3__116allocator_traitsINS_9allocatorIP5BloonEEE10deallocateB7v160006ERS4_PS3_m, symObjAddr: 0x255C, symBinAddr: 0x1000035F0, symSize: 0x34 }
  - { offsetInCU: 0xE1A1, offset: 0xE1A1, size: 0x8, addend: 0x0, symName: __ZNSt3__16vectorIP5BloonNS_9allocatorIS2_EEE7__allocB7v160006Ev, symObjAddr: 0x2590, symBinAddr: 0x100003624, symSize: 0x28 }
  - { offsetInCU: 0xE1C6, offset: 0xE1C6, size: 0x8, addend: 0x0, symName: __ZNKSt3__16vectorIP5BloonNS_9allocatorIS2_EEE8capacityB7v160006Ev, symObjAddr: 0x25B8, symBinAddr: 0x10000364C, symSize: 0x40 }
  - { offsetInCU: 0xE1EB, offset: 0xE1EB, size: 0x8, addend: 0x0, symName: __ZNKSt3__16vectorIP5BloonNS_9allocatorIS2_EEE31__annotate_contiguous_containerB7v160006EPKvS7_S7_S7_, symObjAddr: 0x25F8, symBinAddr: 0x10000368C, symSize: 0x20 }
  - { offsetInCU: 0xE23C, offset: 0xE23C, size: 0x8, addend: 0x0, symName: __ZNKSt3__16vectorIP5BloonNS_9allocatorIS2_EEE4dataB7v160006Ev, symObjAddr: 0x2618, symBinAddr: 0x1000036AC, symSize: 0x28 }
  - { offsetInCU: 0xE261, offset: 0xE261, size: 0x8, addend: 0x0, symName: __ZNSt3__16vectorIP5BloonNS_9allocatorIS2_EEE22__base_destruct_at_endB7v160006EPS2_, symObjAddr: 0x2654, symBinAddr: 0x1000036E8, symSize: 0xA0 }
  - { offsetInCU: 0xE2A4, offset: 0xE2A4, size: 0x8, addend: 0x0, symName: __ZNSt3__116allocator_traitsINS_9allocatorIP5BloonEEE7destroyB7v160006IS3_vEEvRS4_PT_, symObjAddr: 0x26F4, symBinAddr: 0x100003788, symSize: 0x2C }
  - { offsetInCU: 0xE2E1, offset: 0xE2E1, size: 0x8, addend: 0x0, symName: __ZNSt3__19allocatorIP5BloonE7destroyB7v160006EPS2_, symObjAddr: 0x2720, symBinAddr: 0x1000037B4, symSize: 0x14 }
  - { offsetInCU: 0xE314, offset: 0xE314, size: 0x8, addend: 0x0, symName: __ZNSt3__19allocatorIP5BloonE10deallocateB7v160006EPS2_m, symObjAddr: 0x2734, symBinAddr: 0x1000037C8, symSize: 0x70 }
  - { offsetInCU: 0xE355, offset: 0xE355, size: 0x8, addend: 0x0, symName: __ZNSt3__117__compressed_pairIPP5BloonNS_9allocatorIS2_EEE6secondB7v160006Ev, symObjAddr: 0x282C, symBinAddr: 0x1000038C0, symSize: 0x24 }
  - { offsetInCU: 0xE37A, offset: 0xE37A, size: 0x8, addend: 0x0, symName: __ZNSt3__122__compressed_pair_elemINS_9allocatorIP5BloonEELi1ELb1EE5__getB7v160006Ev, symObjAddr: 0x2850, symBinAddr: 0x1000038E4, symSize: 0x14 }
  - { offsetInCU: 0xE39F, offset: 0xE39F, size: 0x8, addend: 0x0, symName: __ZNKSt3__16vectorIP5BloonNS_9allocatorIS2_EEE9__end_capB7v160006Ev, symObjAddr: 0x2864, symBinAddr: 0x1000038F8, symSize: 0x28 }
  - { offsetInCU: 0xE3C4, offset: 0xE3C4, size: 0x8, addend: 0x0, symName: __ZNKSt3__117__compressed_pairIPP5BloonNS_9allocatorIS2_EEE5firstB7v160006Ev, symObjAddr: 0x288C, symBinAddr: 0x100003920, symSize: 0x24 }
  - { offsetInCU: 0xE3E9, offset: 0xE3E9, size: 0x8, addend: 0x0, symName: __ZNKSt3__122__compressed_pair_elemIPP5BloonLi0ELb0EE5__getB7v160006Ev, symObjAddr: 0x28B0, symBinAddr: 0x100003944, symSize: 0x14 }
  - { offsetInCU: 0xE40E, offset: 0xE40E, size: 0x8, addend: 0x0, symName: __ZNSt3__16vectorIP6MonkeyNS_9allocatorIS2_EEED2B7v160006Ev, symObjAddr: 0x28C4, symBinAddr: 0x100003958, symSize: 0x3C }
  - { offsetInCU: 0xE437, offset: 0xE437, size: 0x8, addend: 0x0, symName: __ZNSt3__16vectorIP6MonkeyNS_9allocatorIS2_EEE16__destroy_vectorC1ERS5_, symObjAddr: 0x2900, symBinAddr: 0x100003994, symSize: 0x34 }
  - { offsetInCU: 0xE46F, offset: 0xE46F, size: 0x8, addend: 0x0, symName: __ZNSt3__16vectorIP6MonkeyNS_9allocatorIS2_EEE16__destroy_vectorclB7v160006Ev, symObjAddr: 0x2934, symBinAddr: 0x1000039C8, symSize: 0x9C }
  - { offsetInCU: 0xE494, offset: 0xE494, size: 0x8, addend: 0x0, symName: __ZNSt3__16vectorIP6MonkeyNS_9allocatorIS2_EEE16__destroy_vectorC2ERS5_, symObjAddr: 0x29D0, symBinAddr: 0x100003A64, symSize: 0x20 }
  - { offsetInCU: 0xE4CC, offset: 0xE4CC, size: 0x8, addend: 0x0, symName: __ZNKSt3__16vectorIP6MonkeyNS_9allocatorIS2_EEE17__annotate_deleteB7v160006Ev, symObjAddr: 0x29F0, symBinAddr: 0x100003A84, symSize: 0xB8 }
  - { offsetInCU: 0xE4F1, offset: 0xE4F1, size: 0x8, addend: 0x0, symName: __ZNSt3__16vectorIP6MonkeyNS_9allocatorIS2_EEE7__clearB7v160006Ev, symObjAddr: 0x2AB8, symBinAddr: 0x100003B4C, symSize: 0x28 }
  - { offsetInCU: 0xE516, offset: 0xE516, size: 0x8, addend: 0x0, symName: __ZNSt3__116allocator_traitsINS_9allocatorIP6MonkeyEEE10deallocateB7v160006ERS4_PS3_m, symObjAddr: 0x2AE0, symBinAddr: 0x100003B74, symSize: 0x34 }
  - { offsetInCU: 0xE558, offset: 0xE558, size: 0x8, addend: 0x0, symName: __ZNSt3__16vectorIP6MonkeyNS_9allocatorIS2_EEE7__allocB7v160006Ev, symObjAddr: 0x2B14, symBinAddr: 0x100003BA8, symSize: 0x28 }
  - { offsetInCU: 0xE57D, offset: 0xE57D, size: 0x8, addend: 0x0, symName: __ZNKSt3__16vectorIP6MonkeyNS_9allocatorIS2_EEE8capacityB7v160006Ev, symObjAddr: 0x2B3C, symBinAddr: 0x100003BD0, symSize: 0x40 }
  - { offsetInCU: 0xE5A2, offset: 0xE5A2, size: 0x8, addend: 0x0, symName: __ZNKSt3__16vectorIP6MonkeyNS_9allocatorIS2_EEE31__annotate_contiguous_containerB7v160006EPKvS7_S7_S7_, symObjAddr: 0x2B7C, symBinAddr: 0x100003C10, symSize: 0x20 }
  - { offsetInCU: 0xE5F3, offset: 0xE5F3, size: 0x8, addend: 0x0, symName: __ZNKSt3__16vectorIP6MonkeyNS_9allocatorIS2_EEE4dataB7v160006Ev, symObjAddr: 0x2B9C, symBinAddr: 0x100003C30, symSize: 0x28 }
  - { offsetInCU: 0xE618, offset: 0xE618, size: 0x8, addend: 0x0, symName: __ZNSt3__16vectorIP6MonkeyNS_9allocatorIS2_EEE22__base_destruct_at_endB7v160006EPS2_, symObjAddr: 0x2BD8, symBinAddr: 0x100003C6C, symSize: 0xA0 }
  - { offsetInCU: 0xE65B, offset: 0xE65B, size: 0x8, addend: 0x0, symName: __ZNSt3__116allocator_traitsINS_9allocatorIP6MonkeyEEE7destroyB7v160006IS3_vEEvRS4_PT_, symObjAddr: 0x2C78, symBinAddr: 0x100003D0C, symSize: 0x2C }
  - { offsetInCU: 0xE698, offset: 0xE698, size: 0x8, addend: 0x0, symName: __ZNSt3__19allocatorIP6MonkeyE7destroyB7v160006EPS2_, symObjAddr: 0x2CA4, symBinAddr: 0x100003D38, symSize: 0x14 }
  - { offsetInCU: 0xE6CB, offset: 0xE6CB, size: 0x8, addend: 0x0, symName: __ZNSt3__19allocatorIP6MonkeyE10deallocateB7v160006EPS2_m, symObjAddr: 0x2CB8, symBinAddr: 0x100003D4C, symSize: 0x70 }
  - { offsetInCU: 0xE70C, offset: 0xE70C, size: 0x8, addend: 0x0, symName: __ZNSt3__117__compressed_pairIPP6MonkeyNS_9allocatorIS2_EEE6secondB7v160006Ev, symObjAddr: 0x2D28, symBinAddr: 0x100003DBC, symSize: 0x24 }
  - { offsetInCU: 0xE731, offset: 0xE731, size: 0x8, addend: 0x0, symName: __ZNSt3__122__compressed_pair_elemINS_9allocatorIP6MonkeyEELi1ELb1EE5__getB7v160006Ev, symObjAddr: 0x2D4C, symBinAddr: 0x100003DE0, symSize: 0x14 }
  - { offsetInCU: 0xE756, offset: 0xE756, size: 0x8, addend: 0x0, symName: __ZNKSt3__16vectorIP6MonkeyNS_9allocatorIS2_EEE9__end_capB7v160006Ev, symObjAddr: 0x2D60, symBinAddr: 0x100003DF4, symSize: 0x28 }
  - { offsetInCU: 0xE77B, offset: 0xE77B, size: 0x8, addend: 0x0, symName: __ZNKSt3__117__compressed_pairIPP6MonkeyNS_9allocatorIS2_EEE5firstB7v160006Ev, symObjAddr: 0x2D88, symBinAddr: 0x100003E1C, symSize: 0x24 }
  - { offsetInCU: 0xE7A0, offset: 0xE7A0, size: 0x8, addend: 0x0, symName: __ZNKSt3__122__compressed_pair_elemIPP6MonkeyLi0ELb0EE5__getB7v160006Ev, symObjAddr: 0x2DAC, symBinAddr: 0x100003E40, symSize: 0x14 }
  - { offsetInCU: 0xE7C4, offset: 0xE7C4, size: 0x8, addend: 0x0, symName: __ZNKSt3__19basic_iosIcNS_11char_traitsIcEEE5widenB7v160006Ec, symObjAddr: 0x2DC0, symBinAddr: 0x100003E54, symSize: 0x8C }
  - { offsetInCU: 0xE831, offset: 0xE831, size: 0x8, addend: 0x0, symName: __ZNKSt3__15ctypeIcE5widenB7v160006Ec, symObjAddr: 0x2E78, symBinAddr: 0x100003F0C, symSize: 0x38 }
  - { offsetInCU: 0xE865, offset: 0xE865, size: 0x8, addend: 0x0, symName: __ZNSt3__111char_traitsIcE6lengthEPKc, symObjAddr: 0x30A4, symBinAddr: 0x100004138, symSize: 0x48 }
  - { offsetInCU: 0xE8A6, offset: 0xE8A6, size: 0x8, addend: 0x0, symName: __ZNKSt3__113basic_ostreamIcNS_11char_traitsIcEEE6sentrycvbB7v160006Ev, symObjAddr: 0x30EC, symBinAddr: 0x100004180, symSize: 0x1C }
  - { offsetInCU: 0xE8CB, offset: 0xE8CB, size: 0x8, addend: 0x0, symName: __ZNSt3__119ostreambuf_iteratorIcNS_11char_traitsIcEEEC1B7v160006ERNS_13basic_ostreamIcS2_EE, symObjAddr: 0x3350, symBinAddr: 0x1000043E4, symSize: 0x34 }
  - { offsetInCU: 0xE902, offset: 0xE902, size: 0x8, addend: 0x0, symName: __ZNKSt3__18ios_base5flagsB7v160006Ev, symObjAddr: 0x3384, symBinAddr: 0x100004418, symSize: 0x18 }
  - { offsetInCU: 0xE928, offset: 0xE928, size: 0x8, addend: 0x0, symName: __ZNKSt3__19basic_iosIcNS_11char_traitsIcEEE4fillB7v160006Ev, symObjAddr: 0x339C, symBinAddr: 0x100004430, symSize: 0x64 }
  - { offsetInCU: 0xE94F, offset: 0xE94F, size: 0x8, addend: 0x0, symName: __ZNKSt3__119ostreambuf_iteratorIcNS_11char_traitsIcEEE6failedB7v160006Ev, symObjAddr: 0x3400, symBinAddr: 0x100004494, symSize: 0x24 }
  - { offsetInCU: 0xE974, offset: 0xE974, size: 0x8, addend: 0x0, symName: __ZNSt3__19basic_iosIcNS_11char_traitsIcEEE8setstateB7v160006Ej, symObjAddr: 0x3424, symBinAddr: 0x1000044B8, symSize: 0x2C }
  - { offsetInCU: 0xE9A8, offset: 0xE9A8, size: 0x8, addend: 0x0, symName: __ZNKSt3__18ios_base5widthB7v160006Ev, symObjAddr: 0x3450, symBinAddr: 0x1000044E4, symSize: 0x18 }
  - { offsetInCU: 0xE9CF, offset: 0xE9CF, size: 0x8, addend: 0x0, symName: __ZNSt3__115basic_streambufIcNS_11char_traitsIcEEE5sputnB7v160006EPKcl, symObjAddr: 0x3468, symBinAddr: 0x1000044FC, symSize: 0x3C }
  - { offsetInCU: 0xEA10, offset: 0xEA10, size: 0x8, addend: 0x0, symName: __ZNSt3__112basic_stringIcNS_11char_traitsIcEENS_9allocatorIcEEEC1B7v160006Emc, symObjAddr: 0x34A4, symBinAddr: 0x100004538, symSize: 0x3C }
  - { offsetInCU: 0xEA57, offset: 0xEA57, size: 0x8, addend: 0x0, symName: __ZNKSt3__112basic_stringIcNS_11char_traitsIcEENS_9allocatorIcEEE4dataB7v160006Ev, symObjAddr: 0x34E0, symBinAddr: 0x100004574, symSize: 0x28 }
  - { offsetInCU: 0xEA7C, offset: 0xEA7C, size: 0x8, addend: 0x0, symName: __ZNSt3__18ios_base5widthB7v160006El, symObjAddr: 0x3508, symBinAddr: 0x10000459C, symSize: 0x2C }
  - { offsetInCU: 0xEAC1, offset: 0xEAC1, size: 0x8, addend: 0x0, symName: __ZNSt3__112basic_stringIcNS_11char_traitsIcEENS_9allocatorIcEEEC2B7v160006Emc, symObjAddr: 0x3534, symBinAddr: 0x1000045C8, symSize: 0x54 }
  - { offsetInCU: 0xEB08, offset: 0xEB08, size: 0x8, addend: 0x0, symName: __ZNSt3__117__compressed_pairINS_12basic_stringIcNS_11char_traitsIcEENS_9allocatorIcEEE5__repES5_EC1B7v160006INS_18__default_init_tagESA_EEOT_OT0_, symObjAddr: 0x3588, symBinAddr: 0x10000461C, symSize: 0x3C }
  - { offsetInCU: 0xEB5F, offset: 0xEB5F, size: 0x8, addend: 0x0, symName: __ZNSt3__117__compressed_pairINS_12basic_stringIcNS_11char_traitsIcEENS_9allocatorIcEEE5__repES5_EC2B7v160006INS_18__default_init_tagESA_EEOT_OT0_, symObjAddr: 0x35D4, symBinAddr: 0x100004668, symSize: 0x3C }
  - { offsetInCU: 0xEBB6, offset: 0xEBB6, size: 0x8, addend: 0x0, symName: __ZNSt3__122__compressed_pair_elemINS_12basic_stringIcNS_11char_traitsIcEENS_9allocatorIcEEE5__repELi0ELb0EEC2B7v160006ENS_18__default_init_tagE, symObjAddr: 0x3610, symBinAddr: 0x1000046A4, symSize: 0x14 }
  - { offsetInCU: 0xEBEA, offset: 0xEBEA, size: 0x8, addend: 0x0, symName: __ZNSt3__122__compressed_pair_elemINS_9allocatorIcEELi1ELb1EEC2B7v160006ENS_18__default_init_tagE, symObjAddr: 0x3624, symBinAddr: 0x1000046B8, symSize: 0x2C }
  - { offsetInCU: 0xEC1E, offset: 0xEC1E, size: 0x8, addend: 0x0, symName: __ZNSt3__19allocatorIcEC2B7v160006Ev, symObjAddr: 0x3650, symBinAddr: 0x1000046E4, symSize: 0x2C }
  - { offsetInCU: 0xEC47, offset: 0xEC47, size: 0x8, addend: 0x0, symName: __ZNSt3__116__non_trivial_ifILb1ENS_9allocatorIcEEEC2B7v160006Ev, symObjAddr: 0x367C, symBinAddr: 0x100004710, symSize: 0x14 }
  - { offsetInCU: 0xEC70, offset: 0xEC70, size: 0x8, addend: 0x0, symName: __ZNKSt3__112basic_stringIcNS_11char_traitsIcEENS_9allocatorIcEEE13__get_pointerB7v160006Ev, symObjAddr: 0x36A4, symBinAddr: 0x100004738, symSize: 0x54 }
  - { offsetInCU: 0xEC95, offset: 0xEC95, size: 0x8, addend: 0x0, symName: __ZNKSt3__112basic_stringIcNS_11char_traitsIcEENS_9allocatorIcEEE9__is_longB7v160006Ev, symObjAddr: 0x36F8, symBinAddr: 0x10000478C, symSize: 0x74 }
  - { offsetInCU: 0xECBA, offset: 0xECBA, size: 0x8, addend: 0x0, symName: __ZNKSt3__112basic_stringIcNS_11char_traitsIcEENS_9allocatorIcEEE18__get_long_pointerB7v160006Ev, symObjAddr: 0x376C, symBinAddr: 0x100004800, symSize: 0x28 }
  - { offsetInCU: 0xECDF, offset: 0xECDF, size: 0x8, addend: 0x0, symName: __ZNKSt3__112basic_stringIcNS_11char_traitsIcEENS_9allocatorIcEEE19__get_short_pointerB7v160006Ev, symObjAddr: 0x3794, symBinAddr: 0x100004828, symSize: 0x28 }
  - { offsetInCU: 0xED04, offset: 0xED04, size: 0x8, addend: 0x0, symName: __ZNKSt3__117__compressed_pairINS_12basic_stringIcNS_11char_traitsIcEENS_9allocatorIcEEE5__repES5_E5firstB7v160006Ev, symObjAddr: 0x37BC, symBinAddr: 0x100004850, symSize: 0x24 }
  - { offsetInCU: 0xED29, offset: 0xED29, size: 0x8, addend: 0x0, symName: __ZNKSt3__122__compressed_pair_elemINS_12basic_stringIcNS_11char_traitsIcEENS_9allocatorIcEEE5__repELi0ELb0EE5__getB7v160006Ev, symObjAddr: 0x37E0, symBinAddr: 0x100004874, symSize: 0x14 }
  - { offsetInCU: 0xED4E, offset: 0xED4E, size: 0x8, addend: 0x0, symName: __ZNSt3__114pointer_traitsIPKcE10pointer_toB7v160006ERS1_, symObjAddr: 0x37F4, symBinAddr: 0x100004888, symSize: 0x14 }
  - { offsetInCU: 0xED71, offset: 0xED71, size: 0x8, addend: 0x0, symName: __ZNSt3__119ostreambuf_iteratorIcNS_11char_traitsIcEEEC2B7v160006ERNS_13basic_ostreamIcS2_EE, symObjAddr: 0x3808, symBinAddr: 0x10000489C, symSize: 0x68 }
  - { offsetInCU: 0xEDA7, offset: 0xEDA7, size: 0x8, addend: 0x0, symName: __ZNKSt3__19basic_iosIcNS_11char_traitsIcEEE5rdbufB7v160006Ev, symObjAddr: 0x3870, symBinAddr: 0x100004904, symSize: 0x24 }
  - { offsetInCU: 0xEDCE, offset: 0xEDCE, size: 0x8, addend: 0x0, symName: __ZNKSt3__18ios_base5rdbufB7v160006Ev, symObjAddr: 0x3894, symBinAddr: 0x100004928, symSize: 0x18 }
  - { offsetInCU: 0xEDF3, offset: 0xEDF3, size: 0x8, addend: 0x0, symName: __ZNSt3__111char_traitsIcE11eq_int_typeEii, symObjAddr: 0x38AC, symBinAddr: 0x100004940, symSize: 0x28 }
  - { offsetInCU: 0xEE24, offset: 0xEE24, size: 0x8, addend: 0x0, symName: __ZNSt3__111char_traitsIcE3eofEv, symObjAddr: 0x38D4, symBinAddr: 0x100004968, symSize: 0x8 }
  - { offsetInCU: 0xEE37, offset: 0xEE37, size: 0x8, addend: 0x0, symName: __ZNSt3__18ios_base8setstateB7v160006Ej, symObjAddr: 0x38DC, symBinAddr: 0x100004970, symSize: 0x34 }
  - { offsetInCU: 0xEE6D, offset: 0xEE6D, size: 0x8, addend: 0x0, symName: __ZNKSt3__112basic_stringIcNS_11char_traitsIcEENS_9allocatorIcEEE4sizeB7v160006Ev, symObjAddr: 0x3934, symBinAddr: 0x1000049C8, symSize: 0x54 }
  - { offsetInCU: 0xEE92, offset: 0xEE92, size: 0x8, addend: 0x0, symName: __ZNKSt3__112basic_stringIcNS_11char_traitsIcEENS_9allocatorIcEEE15__get_long_sizeB7v160006Ev, symObjAddr: 0x3988, symBinAddr: 0x100004A1C, symSize: 0x28 }
  - { offsetInCU: 0xEEB7, offset: 0xEEB7, size: 0x8, addend: 0x0, symName: __ZNKSt3__112basic_stringIcNS_11char_traitsIcEENS_9allocatorIcEEE16__get_short_sizeB7v160006Ev, symObjAddr: 0x39B0, symBinAddr: 0x100004A44, symSize: 0x34 }
  - { offsetInCU: 0xEEDC, offset: 0xEEDC, size: 0x8, addend: 0x0, symName: __ZNSt3__112basic_stringIcNS_11char_traitsIcEENS_9allocatorIcEEEC2B7v160006IDnEEPKc, symObjAddr: 0x39E4, symBinAddr: 0x100004A78, symSize: 0x60 }
  - { offsetInCU: 0xEF19, offset: 0xEF19, size: 0x8, addend: 0x0, symName: __ZNSt3__16vectorIP6MonkeyNS_9allocatorIS2_EEE9__end_capB7v160006Ev, symObjAddr: 0x3A44, symBinAddr: 0x100004AD8, symSize: 0x28 }
  - { offsetInCU: 0xEF3E, offset: 0xEF3E, size: 0x8, addend: 0x0, symName: __ZNSt3__16vectorIP6MonkeyNS_9allocatorIS2_EEE22__construct_one_at_endB7v160006IJRKS2_EEEvDpOT_, symObjAddr: 0x3A6C, symBinAddr: 0x100004B00, symSize: 0x98 }
  - { offsetInCU: 0xEF8B, offset: 0xEF8B, size: 0x8, addend: 0x0, symName: __ZNSt3__16vectorIP6MonkeyNS_9allocatorIS2_EEE21__push_back_slow_pathIRKS2_EEvOT_, symObjAddr: 0x3B04, symBinAddr: 0x100004B98, symSize: 0xE0 }
  - { offsetInCU: 0xEFE8, offset: 0xEFE8, size: 0x8, addend: 0x0, symName: __ZNSt3__117__compressed_pairIPP6MonkeyNS_9allocatorIS2_EEE5firstB7v160006Ev, symObjAddr: 0x3BE4, symBinAddr: 0x100004C78, symSize: 0x24 }
  - { offsetInCU: 0xF00D, offset: 0xF00D, size: 0x8, addend: 0x0, symName: __ZNSt3__122__compressed_pair_elemIPP6MonkeyLi0ELb0EE5__getB7v160006Ev, symObjAddr: 0x3C08, symBinAddr: 0x100004C9C, symSize: 0x14 }
  - { offsetInCU: 0xF04B, offset: 0xF04B, size: 0x8, addend: 0x0, symName: __ZNSt3__16vectorIP6MonkeyNS_9allocatorIS2_EEE21_ConstructTransactionC1B7v160006ERS5_m, symObjAddr: 0x3C1C, symBinAddr: 0x100004CB0, symSize: 0x3C }
  - { offsetInCU: 0xF092, offset: 0xF092, size: 0x8, addend: 0x0, symName: __ZNSt3__116allocator_traitsINS_9allocatorIP6MonkeyEEE9constructB7v160006IS3_JRKS3_EvEEvRS4_PT_DpOT0_, symObjAddr: 0x3C58, symBinAddr: 0x100004CEC, symSize: 0x34 }
  - { offsetInCU: 0xF0E9, offset: 0xF0E9, size: 0x8, addend: 0x0, symName: __ZNSt3__16vectorIP6MonkeyNS_9allocatorIS2_EEE21_ConstructTransactionD1B7v160006Ev, symObjAddr: 0x3C8C, symBinAddr: 0x100004D20, symSize: 0x2C }
  - { offsetInCU: 0xF112, offset: 0xF112, size: 0x8, addend: 0x0, symName: __ZNSt3__16vectorIP6MonkeyNS_9allocatorIS2_EEE21_ConstructTransactionC2B7v160006ERS5_m, symObjAddr: 0x3CB8, symBinAddr: 0x100004D4C, symSize: 0x44 }
  - { offsetInCU: 0xF159, offset: 0xF159, size: 0x8, addend: 0x0, symName: __ZNSt3__19allocatorIP6MonkeyE9constructB7v160006IS2_JRKS2_EEEvPT_DpOT0_, symObjAddr: 0x3CFC, symBinAddr: 0x100004D90, symSize: 0x28 }
  - { offsetInCU: 0xF1AE, offset: 0xF1AE, size: 0x8, addend: 0x0, symName: __ZNSt3__16vectorIP6MonkeyNS_9allocatorIS2_EEE21_ConstructTransactionD2B7v160006Ev, symObjAddr: 0x3D24, symBinAddr: 0x100004DB8, symSize: 0x20 }
  - { offsetInCU: 0xF1D6, offset: 0xF1D6, size: 0x8, addend: 0x0, symName: __ZNKSt3__16vectorIP6MonkeyNS_9allocatorIS2_EEE11__recommendB7v160006Em, symObjAddr: 0x3D44, symBinAddr: 0x100004DD8, symSize: 0xB4 }
  - { offsetInCU: 0xF22A, offset: 0xF22A, size: 0x8, addend: 0x0, symName: __ZNSt3__114__split_bufferIP6MonkeyRNS_9allocatorIS2_EEEC1EmmS5_, symObjAddr: 0x3DF8, symBinAddr: 0x100004E8C, symSize: 0x44 }
  - { offsetInCU: 0xF27F, offset: 0xF27F, size: 0x8, addend: 0x0, symName: __ZNSt3__114__split_bufferIP6MonkeyRNS_9allocatorIS2_EEED1Ev, symObjAddr: 0x3F54, symBinAddr: 0x100004FE8, symSize: 0x2C }
  - { offsetInCU: 0xF2A9, offset: 0xF2A9, size: 0x8, addend: 0x0, symName: __ZNKSt3__16vectorIP6MonkeyNS_9allocatorIS2_EEE8max_sizeEv, symObjAddr: 0x3F80, symBinAddr: 0x100005014, symSize: 0x74 }
  - { offsetInCU: 0xF2D0, offset: 0xF2D0, size: 0x8, addend: 0x0, symName: __ZNKSt3__16vectorIP6MonkeyNS_9allocatorIS2_EEE20__throw_length_errorB7v160006Ev, symObjAddr: 0x3FF4, symBinAddr: 0x100005088, symSize: 0x1C }
  - { offsetInCU: 0xF2FF, offset: 0xF2FF, size: 0x8, addend: 0x0, symName: __ZNSt3__116allocator_traitsINS_9allocatorIP6MonkeyEEE8max_sizeB7v160006IS4_vEEmRKS4_, symObjAddr: 0x4068, symBinAddr: 0x1000050FC, symSize: 0x24 }
  - { offsetInCU: 0xF32D, offset: 0xF32D, size: 0x8, addend: 0x0, symName: __ZNKSt3__16vectorIP6MonkeyNS_9allocatorIS2_EEE7__allocB7v160006Ev, symObjAddr: 0x408C, symBinAddr: 0x100005120, symSize: 0x28 }
  - { offsetInCU: 0xF352, offset: 0xF352, size: 0x8, addend: 0x0, symName: __ZNSt3__114numeric_limitsIlE3maxB7v160006Ev, symObjAddr: 0x40B4, symBinAddr: 0x100005148, symSize: 0x14 }
  - { offsetInCU: 0xF37A, offset: 0xF37A, size: 0x8, addend: 0x0, symName: __ZNKSt3__16__lessImmEclB7v160006ERKmS3_, symObjAddr: 0x411C, symBinAddr: 0x1000051B0, symSize: 0x34 }
  - { offsetInCU: 0xF3BB, offset: 0xF3BB, size: 0x8, addend: 0x0, symName: __ZNKSt3__19allocatorIP6MonkeyE8max_sizeB7v160006Ev, symObjAddr: 0x4150, symBinAddr: 0x1000051E4, symSize: 0x14 }
  - { offsetInCU: 0xF3E0, offset: 0xF3E0, size: 0x8, addend: 0x0, symName: __ZNKSt3__117__compressed_pairIPP6MonkeyNS_9allocatorIS2_EEE6secondB7v160006Ev, symObjAddr: 0x4164, symBinAddr: 0x1000051F8, symSize: 0x24 }
  - { offsetInCU: 0xF405, offset: 0xF405, size: 0x8, addend: 0x0, symName: __ZNKSt3__122__compressed_pair_elemINS_9allocatorIP6MonkeyEELi1ELb1EE5__getB7v160006Ev, symObjAddr: 0x4188, symBinAddr: 0x10000521C, symSize: 0x14 }
  - { offsetInCU: 0xF42A, offset: 0xF42A, size: 0x8, addend: 0x0, symName: __ZNSt3__123__libcpp_numeric_limitsIlLb1EE3maxB7v160006Ev, symObjAddr: 0x419C, symBinAddr: 0x100005230, symSize: 0x8 }
  - { offsetInCU: 0xF43E, offset: 0xF43E, size: 0x8, addend: 0x0, symName: __ZNSt12length_errorC1B7v160006EPKc, symObjAddr: 0x4208, symBinAddr: 0x10000529C, symSize: 0x34 }
  - { offsetInCU: 0xF475, offset: 0xF475, size: 0x8, addend: 0x0, symName: __ZNSt12length_errorC2B7v160006EPKc, symObjAddr: 0x423C, symBinAddr: 0x1000052D0, symSize: 0x4C }
  - { offsetInCU: 0xF4AC, offset: 0xF4AC, size: 0x8, addend: 0x0, symName: __ZNSt3__114__split_bufferIP6MonkeyRNS_9allocatorIS2_EEEC2EmmS5_, symObjAddr: 0x42DC, symBinAddr: 0x100005370, symSize: 0xD4 }
  - { offsetInCU: 0xF51F, offset: 0xF51F, size: 0x8, addend: 0x0, symName: __ZNSt3__117__compressed_pairIPP6MonkeyRNS_9allocatorIS2_EEEC1B7v160006IDnS6_EEOT_OT0_, symObjAddr: 0x43B0, symBinAddr: 0x100005444, symSize: 0x3C }
  - { offsetInCU: 0xF576, offset: 0xF576, size: 0x8, addend: 0x0, symName: __ZNSt3__114__split_bufferIP6MonkeyRNS_9allocatorIS2_EEE7__allocB7v160006Ev, symObjAddr: 0x442C, symBinAddr: 0x1000054C0, symSize: 0x28 }
  - { offsetInCU: 0xF59B, offset: 0xF59B, size: 0x8, addend: 0x0, symName: __ZNSt3__114__split_bufferIP6MonkeyRNS_9allocatorIS2_EEE9__end_capB7v160006Ev, symObjAddr: 0x4454, symBinAddr: 0x1000054E8, symSize: 0x28 }
  - { offsetInCU: 0xF5C0, offset: 0xF5C0, size: 0x8, addend: 0x0, symName: __ZNSt3__117__compressed_pairIPP6MonkeyRNS_9allocatorIS2_EEEC2B7v160006IDnS6_EEOT_OT0_, symObjAddr: 0x447C, symBinAddr: 0x100005510, symSize: 0x48 }
  - { offsetInCU: 0xF617, offset: 0xF617, size: 0x8, addend: 0x0, symName: __ZNSt3__122__compressed_pair_elemIRNS_9allocatorIP6MonkeyEELi1ELb0EEC2B7v160006IS5_vEEOT_, symObjAddr: 0x44C4, symBinAddr: 0x100005558, symSize: 0x20 }
  - { offsetInCU: 0xF658, offset: 0xF658, size: 0x8, addend: 0x0, symName: __ZNSt3__19allocatorIP6MonkeyE8allocateB7v160006Em, symObjAddr: 0x44E4, symBinAddr: 0x100005578, symSize: 0x84 }
  - { offsetInCU: 0xF68B, offset: 0xF68B, size: 0x8, addend: 0x0, symName: __ZNSt3__117__compressed_pairIPP6MonkeyRNS_9allocatorIS2_EEE6secondB7v160006Ev, symObjAddr: 0x45E8, symBinAddr: 0x10000567C, symSize: 0x28 }
  - { offsetInCU: 0xF6B0, offset: 0xF6B0, size: 0x8, addend: 0x0, symName: __ZNSt3__122__compressed_pair_elemIRNS_9allocatorIP6MonkeyEELi1ELb0EE5__getB7v160006Ev, symObjAddr: 0x4610, symBinAddr: 0x1000056A4, symSize: 0x18 }
  - { offsetInCU: 0xF6D5, offset: 0xF6D5, size: 0x8, addend: 0x0, symName: __ZNSt3__117__compressed_pairIPP6MonkeyRNS_9allocatorIS2_EEE5firstB7v160006Ev, symObjAddr: 0x4628, symBinAddr: 0x1000056BC, symSize: 0x24 }
  - { offsetInCU: 0xF6FA, offset: 0xF6FA, size: 0x8, addend: 0x0, symName: __ZNSt3__116reverse_iteratorIPP6MonkeyEC1B7v160006ES3_, symObjAddr: 0x4734, symBinAddr: 0x1000057C8, symSize: 0x34 }
  - { offsetInCU: 0xF731, offset: 0xF731, size: 0x8, addend: 0x0, symName: __ZNKSt3__116reverse_iteratorIPP6MonkeyE4baseB7v160006Ev, symObjAddr: 0x4768, symBinAddr: 0x1000057FC, symSize: 0x18 }
  - { offsetInCU: 0xF756, offset: 0xF756, size: 0x8, addend: 0x0, symName: __ZNKSt3__16vectorIP6MonkeyNS_9allocatorIS2_EEE14__annotate_newB7v160006Em, symObjAddr: 0x47BC, symBinAddr: 0x100005850, symSize: 0xAC }
  - { offsetInCU: 0xF78A, offset: 0xF78A, size: 0x8, addend: 0x0, symName: __ZNKSt3__116reverse_iteratorIPP6MonkeyEdeB7v160006Ev, symObjAddr: 0x4910, symBinAddr: 0x1000059A4, symSize: 0x28 }
  - { offsetInCU: 0xF7BD, offset: 0xF7BD, size: 0x8, addend: 0x0, symName: __ZNSt3__116reverse_iteratorIPP6MonkeyEppB7v160006Ev, symObjAddr: 0x4938, symBinAddr: 0x1000059CC, symSize: 0x20 }
  - { offsetInCU: 0xF7E7, offset: 0xF7E7, size: 0x8, addend: 0x0, symName: __ZNSt3__119__to_address_helperINS_16reverse_iteratorIPP6MonkeyEEvE6__callB7v160006ERKS5_, symObjAddr: 0x49D0, symBinAddr: 0x100005A64, symSize: 0x4C }
  - { offsetInCU: 0xF80A, offset: 0xF80A, size: 0x8, addend: 0x0, symName: __ZNKSt3__116reverse_iteratorIPP6MonkeyEptB7v160006Ev, symObjAddr: 0x4A1C, symBinAddr: 0x100005AB0, symSize: 0x24 }
  - { offsetInCU: 0xF852, offset: 0xF852, size: 0x8, addend: 0x0, symName: __ZNKSt3__111__move_loopINS_17_ClassicAlgPolicyEEclB7v160006INS_16reverse_iteratorIPP6MonkeyEES8_S8_EENS_4pairIT_T1_EESA_T0_SB_, symObjAddr: 0x4CD0, symBinAddr: 0x100005D64, symSize: 0xA0 }
  - { offsetInCU: 0xF8C1, offset: 0xF8C1, size: 0x8, addend: 0x0, symName: __ZNSt3__18_IterOpsINS_17_ClassicAlgPolicyEE11__iter_moveB7v160006IRNS_16reverse_iteratorIPP6MonkeyEEEENS_9enable_ifIXsr12is_referenceIDTdeclsr3stdE7declvalIRT_EEEEE5valueEDTclsr3stdE4movedeclsr3stdE7declvalISC_EEEEE4typeEOSB_, symObjAddr: 0x4ED0, symBinAddr: 0x100005F64, symSize: 0x28 }
  - { offsetInCU: 0xF8ED, offset: 0xF8ED, size: 0x8, addend: 0x0, symName: __ZNSt3__18_IterOpsINS_17_ClassicAlgPolicyEE25__validate_iter_referenceB7v160006IRNS_16reverse_iteratorIPP6MonkeyEEEEvv, symObjAddr: 0x4EF8, symBinAddr: 0x100005F8C, symSize: 0x4 }
  - { offsetInCU: 0xF90B, offset: 0xF90B, size: 0x8, addend: 0x0, symName: __ZNSt3__118__unwrap_iter_implINS_16reverse_iteratorIPP6MonkeyEELb0EE8__unwrapB7v160006ES5_, symObjAddr: 0x4EFC, symBinAddr: 0x100005F90, symSize: 0x24 }
  - { offsetInCU: 0xF92E, offset: 0xF92E, size: 0x8, addend: 0x0, symName: __ZNSt3__14pairINS_16reverse_iteratorIPP6MonkeyEES5_EC1B7v160006ERKS5_S8_, symObjAddr: 0x4F20, symBinAddr: 0x100005FB4, symSize: 0x3C }
  - { offsetInCU: 0xF973, offset: 0xF973, size: 0x8, addend: 0x0, symName: __ZNSt3__14pairINS_16reverse_iteratorIPP6MonkeyEES5_EC2B7v160006ERKS5_S8_, symObjAddr: 0x4F5C, symBinAddr: 0x100005FF0, symSize: 0x34 }
  - { offsetInCU: 0xF9B8, offset: 0xF9B8, size: 0x8, addend: 0x0, symName: __ZNSt3__118__unwrap_iter_implINS_16reverse_iteratorIPP6MonkeyEELb0EE8__rewrapB7v160006ES5_S5_, symObjAddr: 0x4F90, symBinAddr: 0x100006024, symSize: 0x2C }
  - { offsetInCU: 0xF9E6, offset: 0xF9E6, size: 0x8, addend: 0x0, symName: __ZNSt3__116reverse_iteratorIPP6MonkeyEC2B7v160006ES3_, symObjAddr: 0x4FBC, symBinAddr: 0x100006050, symSize: 0x28 }
  - { offsetInCU: 0xFA1D, offset: 0xFA1D, size: 0x8, addend: 0x0, symName: __ZNSt3__114__split_bufferIP6MonkeyRNS_9allocatorIS2_EEED2Ev, symObjAddr: 0x4FE4, symBinAddr: 0x100006078, symSize: 0x80 }
  - { offsetInCU: 0xFA48, offset: 0xFA48, size: 0x8, addend: 0x0, symName: __ZNSt3__114__split_bufferIP6MonkeyRNS_9allocatorIS2_EEE5clearB7v160006Ev, symObjAddr: 0x5064, symBinAddr: 0x1000060F8, symSize: 0x28 }
  - { offsetInCU: 0xFA6D, offset: 0xFA6D, size: 0x8, addend: 0x0, symName: __ZNKSt3__114__split_bufferIP6MonkeyRNS_9allocatorIS2_EEE8capacityB7v160006Ev, symObjAddr: 0x508C, symBinAddr: 0x100006120, symSize: 0x40 }
  - { offsetInCU: 0xFA92, offset: 0xFA92, size: 0x8, addend: 0x0, symName: __ZNSt3__114__split_bufferIP6MonkeyRNS_9allocatorIS2_EEE17__destruct_at_endB7v160006EPS2_, symObjAddr: 0x50CC, symBinAddr: 0x100006160, symSize: 0x2C }
  - { offsetInCU: 0xFAC4, offset: 0xFAC4, size: 0x8, addend: 0x0, symName: __ZNSt3__114__split_bufferIP6MonkeyRNS_9allocatorIS2_EEE17__destruct_at_endB7v160006EPS2_NS_17integral_constantIbLb0EEE, symObjAddr: 0x50F8, symBinAddr: 0x10000618C, symSize: 0x94 }
  - { offsetInCU: 0xFB04, offset: 0xFB04, size: 0x8, addend: 0x0, symName: __ZNKSt3__114__split_bufferIP6MonkeyRNS_9allocatorIS2_EEE9__end_capB7v160006Ev, symObjAddr: 0x518C, symBinAddr: 0x100006220, symSize: 0x28 }
  - { offsetInCU: 0xFB29, offset: 0xFB29, size: 0x8, addend: 0x0, symName: __ZNKSt3__117__compressed_pairIPP6MonkeyRNS_9allocatorIS2_EEE5firstB7v160006Ev, symObjAddr: 0x51B4, symBinAddr: 0x100006248, symSize: 0x24 }
  - { offsetInCU: 0xFB4E, offset: 0xFB4E, size: 0x8, addend: 0x0, symName: __ZNSt3__16vectorIP5BloonNS_9allocatorIS2_EEE9__end_capB7v160006Ev, symObjAddr: 0x51D8, symBinAddr: 0x10000626C, symSize: 0x28 }
  - { offsetInCU: 0xFB73, offset: 0xFB73, size: 0x8, addend: 0x0, symName: __ZNSt3__16vectorIP5BloonNS_9allocatorIS2_EEE22__construct_one_at_endB7v160006IJRKS2_EEEvDpOT_, symObjAddr: 0x5200, symBinAddr: 0x100006294, symSize: 0x98 }
  - { offsetInCU: 0xFBC0, offset: 0xFBC0, size: 0x8, addend: 0x0, symName: __ZNSt3__16vectorIP5BloonNS_9allocatorIS2_EEE21__push_back_slow_pathIRKS2_EEvOT_, symObjAddr: 0x5298, symBinAddr: 0x10000632C, symSize: 0xE0 }
  - { offsetInCU: 0xFC1D, offset: 0xFC1D, size: 0x8, addend: 0x0, symName: __ZNSt3__117__compressed_pairIPP5BloonNS_9allocatorIS2_EEE5firstB7v160006Ev, symObjAddr: 0x5378, symBinAddr: 0x10000640C, symSize: 0x24 }
  - { offsetInCU: 0xFC42, offset: 0xFC42, size: 0x8, addend: 0x0, symName: __ZNSt3__122__compressed_pair_elemIPP5BloonLi0ELb0EE5__getB7v160006Ev, symObjAddr: 0x539C, symBinAddr: 0x100006430, symSize: 0x14 }
  - { offsetInCU: 0xFC80, offset: 0xFC80, size: 0x8, addend: 0x0, symName: __ZNSt3__16vectorIP5BloonNS_9allocatorIS2_EEE21_ConstructTransactionC1B7v160006ERS5_m, symObjAddr: 0x53B0, symBinAddr: 0x100006444, symSize: 0x3C }
  - { offsetInCU: 0xFCC7, offset: 0xFCC7, size: 0x8, addend: 0x0, symName: __ZNSt3__116allocator_traitsINS_9allocatorIP5BloonEEE9constructB7v160006IS3_JRKS3_EvEEvRS4_PT_DpOT0_, symObjAddr: 0x53EC, symBinAddr: 0x100006480, symSize: 0x34 }
  - { offsetInCU: 0xFD1E, offset: 0xFD1E, size: 0x8, addend: 0x0, symName: __ZNSt3__16vectorIP5BloonNS_9allocatorIS2_EEE21_ConstructTransactionD1B7v160006Ev, symObjAddr: 0x5420, symBinAddr: 0x1000064B4, symSize: 0x2C }
  - { offsetInCU: 0xFD47, offset: 0xFD47, size: 0x8, addend: 0x0, symName: __ZNSt3__16vectorIP5BloonNS_9allocatorIS2_EEE21_ConstructTransactionC2B7v160006ERS5_m, symObjAddr: 0x544C, symBinAddr: 0x1000064E0, symSize: 0x44 }
  - { offsetInCU: 0xFD8E, offset: 0xFD8E, size: 0x8, addend: 0x0, symName: __ZNSt3__19allocatorIP5BloonE9constructB7v160006IS2_JRKS2_EEEvPT_DpOT0_, symObjAddr: 0x5490, symBinAddr: 0x100006524, symSize: 0x28 }
  - { offsetInCU: 0xFDE3, offset: 0xFDE3, size: 0x8, addend: 0x0, symName: __ZNSt3__16vectorIP5BloonNS_9allocatorIS2_EEE21_ConstructTransactionD2B7v160006Ev, symObjAddr: 0x54B8, symBinAddr: 0x10000654C, symSize: 0x20 }
  - { offsetInCU: 0xFE0B, offset: 0xFE0B, size: 0x8, addend: 0x0, symName: __ZNKSt3__16vectorIP5BloonNS_9allocatorIS2_EEE11__recommendB7v160006Em, symObjAddr: 0x54D8, symBinAddr: 0x10000656C, symSize: 0xB4 }
  - { offsetInCU: 0xFE5F, offset: 0xFE5F, size: 0x8, addend: 0x0, symName: __ZNSt3__114__split_bufferIP5BloonRNS_9allocatorIS2_EEEC1EmmS5_, symObjAddr: 0x558C, symBinAddr: 0x100006620, symSize: 0x44 }
  - { offsetInCU: 0xFEB4, offset: 0xFEB4, size: 0x8, addend: 0x0, symName: __ZNSt3__114__split_bufferIP5BloonRNS_9allocatorIS2_EEED1Ev, symObjAddr: 0x56E8, symBinAddr: 0x10000677C, symSize: 0x2C }
  - { offsetInCU: 0xFEDE, offset: 0xFEDE, size: 0x8, addend: 0x0, symName: __ZNKSt3__16vectorIP5BloonNS_9allocatorIS2_EEE8max_sizeEv, symObjAddr: 0x5714, symBinAddr: 0x1000067A8, symSize: 0x74 }
  - { offsetInCU: 0xFF05, offset: 0xFF05, size: 0x8, addend: 0x0, symName: __ZNKSt3__16vectorIP5BloonNS_9allocatorIS2_EEE20__throw_length_errorB7v160006Ev, symObjAddr: 0x5788, symBinAddr: 0x10000681C, symSize: 0x1C }
  - { offsetInCU: 0xFF34, offset: 0xFF34, size: 0x8, addend: 0x0, symName: __ZNSt3__116allocator_traitsINS_9allocatorIP5BloonEEE8max_sizeB7v160006IS4_vEEmRKS4_, symObjAddr: 0x57A4, symBinAddr: 0x100006838, symSize: 0x24 }
  - { offsetInCU: 0xFF62, offset: 0xFF62, size: 0x8, addend: 0x0, symName: __ZNKSt3__16vectorIP5BloonNS_9allocatorIS2_EEE7__allocB7v160006Ev, symObjAddr: 0x57C8, symBinAddr: 0x10000685C, symSize: 0x28 }
  - { offsetInCU: 0xFF87, offset: 0xFF87, size: 0x8, addend: 0x0, symName: __ZNKSt3__19allocatorIP5BloonE8max_sizeB7v160006Ev, symObjAddr: 0x57F0, symBinAddr: 0x100006884, symSize: 0x14 }
  - { offsetInCU: 0xFFAC, offset: 0xFFAC, size: 0x8, addend: 0x0, symName: __ZNKSt3__117__compressed_pairIPP5BloonNS_9allocatorIS2_EEE6secondB7v160006Ev, symObjAddr: 0x5804, symBinAddr: 0x100006898, symSize: 0x24 }
  - { offsetInCU: 0xFFD1, offset: 0xFFD1, size: 0x8, addend: 0x0, symName: __ZNKSt3__122__compressed_pair_elemINS_9allocatorIP5BloonEELi1ELb1EE5__getB7v160006Ev, symObjAddr: 0x5828, symBinAddr: 0x1000068BC, symSize: 0x14 }
  - { offsetInCU: 0xFFF6, offset: 0xFFF6, size: 0x8, addend: 0x0, symName: __ZNSt3__114__split_bufferIP5BloonRNS_9allocatorIS2_EEEC2EmmS5_, symObjAddr: 0x583C, symBinAddr: 0x1000068D0, symSize: 0xD4 }
  - { offsetInCU: 0x10069, offset: 0x10069, size: 0x8, addend: 0x0, symName: __ZNSt3__117__compressed_pairIPP5BloonRNS_9allocatorIS2_EEEC1B7v160006IDnS6_EEOT_OT0_, symObjAddr: 0x5910, symBinAddr: 0x1000069A4, symSize: 0x3C }
  - { offsetInCU: 0x100C0, offset: 0x100C0, size: 0x8, addend: 0x0, symName: __ZNSt3__114__split_bufferIP5BloonRNS_9allocatorIS2_EEE7__allocB7v160006Ev, symObjAddr: 0x598C, symBinAddr: 0x100006A20, symSize: 0x28 }
  - { offsetInCU: 0x100E5, offset: 0x100E5, size: 0x8, addend: 0x0, symName: __ZNSt3__114__split_bufferIP5BloonRNS_9allocatorIS2_EEE9__end_capB7v160006Ev, symObjAddr: 0x59B4, symBinAddr: 0x100006A48, symSize: 0x28 }
  - { offsetInCU: 0x1010A, offset: 0x1010A, size: 0x8, addend: 0x0, symName: __ZNSt3__117__compressed_pairIPP5BloonRNS_9allocatorIS2_EEEC2B7v160006IDnS6_EEOT_OT0_, symObjAddr: 0x59DC, symBinAddr: 0x100006A70, symSize: 0x48 }
  - { offsetInCU: 0x10161, offset: 0x10161, size: 0x8, addend: 0x0, symName: __ZNSt3__122__compressed_pair_elemIRNS_9allocatorIP5BloonEELi1ELb0EEC2B7v160006IS5_vEEOT_, symObjAddr: 0x5A24, symBinAddr: 0x100006AB8, symSize: 0x20 }
  - { offsetInCU: 0x101A2, offset: 0x101A2, size: 0x8, addend: 0x0, symName: __ZNSt3__19allocatorIP5BloonE8allocateB7v160006Em, symObjAddr: 0x5A44, symBinAddr: 0x100006AD8, symSize: 0x84 }
  - { offsetInCU: 0x101D5, offset: 0x101D5, size: 0x8, addend: 0x0, symName: __ZNSt3__117__compressed_pairIPP5BloonRNS_9allocatorIS2_EEE6secondB7v160006Ev, symObjAddr: 0x5AC8, symBinAddr: 0x100006B5C, symSize: 0x28 }
  - { offsetInCU: 0x101FA, offset: 0x101FA, size: 0x8, addend: 0x0, symName: __ZNSt3__122__compressed_pair_elemIRNS_9allocatorIP5BloonEELi1ELb0EE5__getB7v160006Ev, symObjAddr: 0x5AF0, symBinAddr: 0x100006B84, symSize: 0x18 }
  - { offsetInCU: 0x1021F, offset: 0x1021F, size: 0x8, addend: 0x0, symName: __ZNSt3__117__compressed_pairIPP5BloonRNS_9allocatorIS2_EEE5firstB7v160006Ev, symObjAddr: 0x5B08, symBinAddr: 0x100006B9C, symSize: 0x24 }
  - { offsetInCU: 0x10244, offset: 0x10244, size: 0x8, addend: 0x0, symName: __ZNSt3__116reverse_iteratorIPP5BloonEC1B7v160006ES3_, symObjAddr: 0x5C14, symBinAddr: 0x100006CA8, symSize: 0x34 }
  - { offsetInCU: 0x1027B, offset: 0x1027B, size: 0x8, addend: 0x0, symName: __ZNKSt3__116reverse_iteratorIPP5BloonE4baseB7v160006Ev, symObjAddr: 0x5C48, symBinAddr: 0x100006CDC, symSize: 0x18 }
  - { offsetInCU: 0x102A0, offset: 0x102A0, size: 0x8, addend: 0x0, symName: __ZNKSt3__16vectorIP5BloonNS_9allocatorIS2_EEE14__annotate_newB7v160006Em, symObjAddr: 0x5C9C, symBinAddr: 0x100006D30, symSize: 0xAC }
  - { offsetInCU: 0x102D4, offset: 0x102D4, size: 0x8, addend: 0x0, symName: __ZNKSt3__116reverse_iteratorIPP5BloonEdeB7v160006Ev, symObjAddr: 0x5DF0, symBinAddr: 0x100006E84, symSize: 0x28 }
  - { offsetInCU: 0x10307, offset: 0x10307, size: 0x8, addend: 0x0, symName: __ZNSt3__116reverse_iteratorIPP5BloonEppB7v160006Ev, symObjAddr: 0x5E18, symBinAddr: 0x100006EAC, symSize: 0x20 }
  - { offsetInCU: 0x10331, offset: 0x10331, size: 0x8, addend: 0x0, symName: __ZNSt3__119__to_address_helperINS_16reverse_iteratorIPP5BloonEEvE6__callB7v160006ERKS5_, symObjAddr: 0x5EB0, symBinAddr: 0x100006F44, symSize: 0x4C }
  - { offsetInCU: 0x10354, offset: 0x10354, size: 0x8, addend: 0x0, symName: __ZNKSt3__116reverse_iteratorIPP5BloonEptB7v160006Ev, symObjAddr: 0x5EFC, symBinAddr: 0x100006F90, symSize: 0x24 }
  - { offsetInCU: 0x10392, offset: 0x10392, size: 0x8, addend: 0x0, symName: __ZNKSt3__111__move_loopINS_17_ClassicAlgPolicyEEclB7v160006INS_16reverse_iteratorIPP5BloonEES8_S8_EENS_4pairIT_T1_EESA_T0_SB_, symObjAddr: 0x61B0, symBinAddr: 0x100007244, symSize: 0xA0 }
  - { offsetInCU: 0x10401, offset: 0x10401, size: 0x8, addend: 0x0, symName: __ZNSt3__18_IterOpsINS_17_ClassicAlgPolicyEE11__iter_moveB7v160006IRNS_16reverse_iteratorIPP5BloonEEEENS_9enable_ifIXsr12is_referenceIDTdeclsr3stdE7declvalIRT_EEEEE5valueEDTclsr3stdE4movedeclsr3stdE7declvalISC_EEEEE4typeEOSB_, symObjAddr: 0x63B0, symBinAddr: 0x100007444, symSize: 0x28 }
  - { offsetInCU: 0x1042D, offset: 0x1042D, size: 0x8, addend: 0x0, symName: __ZNSt3__18_IterOpsINS_17_ClassicAlgPolicyEE25__validate_iter_referenceB7v160006IRNS_16reverse_iteratorIPP5BloonEEEEvv, symObjAddr: 0x63D8, symBinAddr: 0x10000746C, symSize: 0x4 }
  - { offsetInCU: 0x1044B, offset: 0x1044B, size: 0x8, addend: 0x0, symName: __ZNSt3__118__unwrap_iter_implINS_16reverse_iteratorIPP5BloonEELb0EE8__unwrapB7v160006ES5_, symObjAddr: 0x63DC, symBinAddr: 0x100007470, symSize: 0x24 }
  - { offsetInCU: 0x1046E, offset: 0x1046E, size: 0x8, addend: 0x0, symName: __ZNSt3__14pairINS_16reverse_iteratorIPP5BloonEES5_EC1B7v160006ERKS5_S8_, symObjAddr: 0x6400, symBinAddr: 0x100007494, symSize: 0x3C }
  - { offsetInCU: 0x104B3, offset: 0x104B3, size: 0x8, addend: 0x0, symName: __ZNSt3__14pairINS_16reverse_iteratorIPP5BloonEES5_EC2B7v160006ERKS5_S8_, symObjAddr: 0x643C, symBinAddr: 0x1000074D0, symSize: 0x34 }
  - { offsetInCU: 0x104F8, offset: 0x104F8, size: 0x8, addend: 0x0, symName: __ZNSt3__118__unwrap_iter_implINS_16reverse_iteratorIPP5BloonEELb0EE8__rewrapB7v160006ES5_S5_, symObjAddr: 0x6470, symBinAddr: 0x100007504, symSize: 0x2C }
  - { offsetInCU: 0x10526, offset: 0x10526, size: 0x8, addend: 0x0, symName: __ZNSt3__116reverse_iteratorIPP5BloonEC2B7v160006ES3_, symObjAddr: 0x649C, symBinAddr: 0x100007530, symSize: 0x28 }
  - { offsetInCU: 0x1055D, offset: 0x1055D, size: 0x8, addend: 0x0, symName: __ZNSt3__114__split_bufferIP5BloonRNS_9allocatorIS2_EEED2Ev, symObjAddr: 0x64C4, symBinAddr: 0x100007558, symSize: 0x80 }
  - { offsetInCU: 0x10588, offset: 0x10588, size: 0x8, addend: 0x0, symName: __ZNSt3__114__split_bufferIP5BloonRNS_9allocatorIS2_EEE5clearB7v160006Ev, symObjAddr: 0x6544, symBinAddr: 0x1000075D8, symSize: 0x28 }
  - { offsetInCU: 0x105AD, offset: 0x105AD, size: 0x8, addend: 0x0, symName: __ZNKSt3__114__split_bufferIP5BloonRNS_9allocatorIS2_EEE8capacityB7v160006Ev, symObjAddr: 0x656C, symBinAddr: 0x100007600, symSize: 0x40 }
  - { offsetInCU: 0x105D2, offset: 0x105D2, size: 0x8, addend: 0x0, symName: __ZNSt3__114__split_bufferIP5BloonRNS_9allocatorIS2_EEE17__destruct_at_endB7v160006EPS2_, symObjAddr: 0x65AC, symBinAddr: 0x100007640, symSize: 0x2C }
  - { offsetInCU: 0x10604, offset: 0x10604, size: 0x8, addend: 0x0, symName: __ZNSt3__114__split_bufferIP5BloonRNS_9allocatorIS2_EEE17__destruct_at_endB7v160006EPS2_NS_17integral_constantIbLb0EEE, symObjAddr: 0x65D8, symBinAddr: 0x10000766C, symSize: 0x94 }
  - { offsetInCU: 0x10644, offset: 0x10644, size: 0x8, addend: 0x0, symName: __ZNKSt3__114__split_bufferIP5BloonRNS_9allocatorIS2_EEE9__end_capB7v160006Ev, symObjAddr: 0x666C, symBinAddr: 0x100007700, symSize: 0x28 }
  - { offsetInCU: 0x10669, offset: 0x10669, size: 0x8, addend: 0x0, symName: __ZNKSt3__117__compressed_pairIPP5BloonRNS_9allocatorIS2_EEE5firstB7v160006Ev, symObjAddr: 0x6694, symBinAddr: 0x100007728, symSize: 0x24 }
  - { offsetInCU: 0x1068E, offset: 0x1068E, size: 0x8, addend: 0x0, symName: __ZNSt3__16vectorIP5BloonNS_9allocatorIS2_EEEC2ERKS5_, symObjAddr: 0x66B8, symBinAddr: 0x10000774C, symSize: 0x118 }
  - { offsetInCU: 0x106EC, offset: 0x106EC, size: 0x8, addend: 0x0, symName: __ZNSt3__116allocator_traitsINS_9allocatorIP5BloonEEE37select_on_container_copy_constructionB7v160006IS4_vvEES4_RKS4_, symObjAddr: 0x67D0, symBinAddr: 0x100007864, symSize: 0x10 }
  - { offsetInCU: 0x10720, offset: 0x10720, size: 0x8, addend: 0x0, symName: __ZNSt3__117__compressed_pairIPP5BloonNS_9allocatorIS2_EEEC1B7v160006IDnS5_EEOT_OT0_, symObjAddr: 0x67E0, symBinAddr: 0x100007874, symSize: 0x3C }
  - { offsetInCU: 0x10777, offset: 0x10777, size: 0x8, addend: 0x0, symName: __ZNSt3__16vectorIP5BloonNS_9allocatorIS2_EEE11__vallocateB7v160006Em, symObjAddr: 0x685C, symBinAddr: 0x1000078F0, symSize: 0xAC }
  - { offsetInCU: 0x107B9, offset: 0x107B9, size: 0x8, addend: 0x0, symName: __ZNSt3__16vectorIP5BloonNS_9allocatorIS2_EEE18__construct_at_endIPS2_Li0EEEvT_S8_m, symObjAddr: 0x6908, symBinAddr: 0x10000799C, symSize: 0x94 }
  - { offsetInCU: 0x1082B, offset: 0x1082B, size: 0x8, addend: 0x0, symName: __ZNSt3__128__exception_guard_exceptionsINS_6vectorIP5BloonNS_9allocatorIS3_EEE16__destroy_vectorEE10__completeB7v160006Ev, symObjAddr: 0x699C, symBinAddr: 0x100007A30, symSize: 0x1C }
  - { offsetInCU: 0x10850, offset: 0x10850, size: 0x8, addend: 0x0, symName: __ZNSt3__128__exception_guard_exceptionsINS_6vectorIP5BloonNS_9allocatorIS3_EEE16__destroy_vectorEED1B7v160006Ev, symObjAddr: 0x69B8, symBinAddr: 0x100007A4C, symSize: 0x2C }
  - { offsetInCU: 0x10879, offset: 0x10879, size: 0x8, addend: 0x0, symName: __ZNSt3__117__compressed_pairIPP5BloonNS_9allocatorIS2_EEEC2B7v160006IDnS5_EEOT_OT0_, symObjAddr: 0x69E4, symBinAddr: 0x100007A78, symSize: 0x44 }
  - { offsetInCU: 0x108D0, offset: 0x108D0, size: 0x8, addend: 0x0, symName: __ZNSt3__122__compressed_pair_elemINS_9allocatorIP5BloonEELi1ELb1EEC2B7v160006IS4_vEEOT_, symObjAddr: 0x6A28, symBinAddr: 0x100007ABC, symSize: 0x18 }
  - { offsetInCU: 0x10911, offset: 0x10911, size: 0x8, addend: 0x0, symName: __ZNSt3__128__exception_guard_exceptionsINS_6vectorIP5BloonNS_9allocatorIS3_EEE16__destroy_vectorEEC1B7v160006ES7_, symObjAddr: 0x6A40, symBinAddr: 0x100007AD4, symSize: 0x34 }
  - { offsetInCU: 0x10948, offset: 0x10948, size: 0x8, addend: 0x0, symName: __ZNSt3__128__exception_guard_exceptionsINS_6vectorIP5BloonNS_9allocatorIS3_EEE16__destroy_vectorEEC2B7v160006ES7_, symObjAddr: 0x6A74, symBinAddr: 0x100007B08, symSize: 0x24 }
  - { offsetInCU: 0x1097F, offset: 0x1097F, size: 0x8, addend: 0x0, symName: __ZNSt3__129_AllocatorDestroyRangeReverseINS_9allocatorIP5BloonEEPS3_EC1B7v160006ERS4_RS5_S8_, symObjAddr: 0x6BE0, symBinAddr: 0x100007C74, symSize: 0x44 }
  - { offsetInCU: 0x109D5, offset: 0x109D5, size: 0x8, addend: 0x0, symName: __ZNSt3__116allocator_traitsINS_9allocatorIP5BloonEEE9constructB7v160006IS3_JRS3_EvEEvRS4_PT_DpOT0_, symObjAddr: 0x6C24, symBinAddr: 0x100007CB8, symSize: 0x34 }
  - { offsetInCU: 0x10A2C, offset: 0x10A2C, size: 0x8, addend: 0x0, symName: __ZNSt3__128__exception_guard_exceptionsINS_29_AllocatorDestroyRangeReverseINS_9allocatorIP5BloonEEPS4_EEE10__completeB7v160006Ev, symObjAddr: 0x6C58, symBinAddr: 0x100007CEC, symSize: 0x1C }
  - { offsetInCU: 0x10A51, offset: 0x10A51, size: 0x8, addend: 0x0, symName: __ZNSt3__128__exception_guard_exceptionsINS_29_AllocatorDestroyRangeReverseINS_9allocatorIP5BloonEEPS4_EEED1B7v160006Ev, symObjAddr: 0x6C74, symBinAddr: 0x100007D08, symSize: 0x2C }
  - { offsetInCU: 0x10A7A, offset: 0x10A7A, size: 0x8, addend: 0x0, symName: __ZNSt3__128__exception_guard_exceptionsINS_29_AllocatorDestroyRangeReverseINS_9allocatorIP5BloonEEPS4_EEEC1B7v160006ES7_, symObjAddr: 0x6CA0, symBinAddr: 0x100007D34, symSize: 0x34 }
  - { offsetInCU: 0x10AB2, offset: 0x10AB2, size: 0x8, addend: 0x0, symName: __ZNSt3__128__exception_guard_exceptionsINS_29_AllocatorDestroyRangeReverseINS_9allocatorIP5BloonEEPS4_EEEC2B7v160006ES7_, symObjAddr: 0x6CD4, symBinAddr: 0x100007D68, symSize: 0x30 }
  - { offsetInCU: 0x10AEA, offset: 0x10AEA, size: 0x8, addend: 0x0, symName: __ZNSt3__129_AllocatorDestroyRangeReverseINS_9allocatorIP5BloonEEPS3_EC2B7v160006ERS4_RS5_S8_, symObjAddr: 0x6D04, symBinAddr: 0x100007D98, symSize: 0x38 }
  - { offsetInCU: 0x10B40, offset: 0x10B40, size: 0x8, addend: 0x0, symName: __ZNSt3__19allocatorIP5BloonE9constructB7v160006IS2_JRS2_EEEvPT_DpOT0_, symObjAddr: 0x6D3C, symBinAddr: 0x100007DD0, symSize: 0x28 }
  - { offsetInCU: 0x10B95, offset: 0x10B95, size: 0x8, addend: 0x0, symName: __ZNSt3__128__exception_guard_exceptionsINS_29_AllocatorDestroyRangeReverseINS_9allocatorIP5BloonEEPS4_EEED2B7v160006Ev, symObjAddr: 0x6D64, symBinAddr: 0x100007DF8, symSize: 0x48 }
  - { offsetInCU: 0x10BBE, offset: 0x10BBE, size: 0x8, addend: 0x0, symName: __ZNKSt3__129_AllocatorDestroyRangeReverseINS_9allocatorIP5BloonEEPS3_EclB7v160006Ev, symObjAddr: 0x6DAC, symBinAddr: 0x100007E40, symSize: 0x68 }
  - { offsetInCU: 0x10BE3, offset: 0x10BE3, size: 0x8, addend: 0x0, symName: __ZNSt3__128__exception_guard_exceptionsINS_6vectorIP5BloonNS_9allocatorIS3_EEE16__destroy_vectorEED2B7v160006Ev, symObjAddr: 0x6E84, symBinAddr: 0x100007F18, symSize: 0x48 }
  - { offsetInCU: 0x10C0C, offset: 0x10C0C, size: 0x8, addend: 0x0, symName: __ZNSt3__16vectorIP5BloonNS_9allocatorIS2_EEE11__make_iterB7v160006EPS2_, symObjAddr: 0x6ECC, symBinAddr: 0x100007F60, symSize: 0x34 }
  - { offsetInCU: 0x10C40, offset: 0x10C40, size: 0x8, addend: 0x0, symName: __ZNSt3__111__wrap_iterIPP5BloonEC1B7v160006EPKvS3_, symObjAddr: 0x6F00, symBinAddr: 0x100007F94, symSize: 0x3C }
  - { offsetInCU: 0x10C85, offset: 0x10C85, size: 0x8, addend: 0x0, symName: __ZNSt3__111__wrap_iterIPP5BloonEC2B7v160006EPKvS3_, symObjAddr: 0x6F3C, symBinAddr: 0x100007FD0, symSize: 0x24 }
  - { offsetInCU: 0x10CCA, offset: 0x10CCA, size: 0x8, addend: 0x0, symName: __ZNSt3__111__wrap_iterIPP5BloonEpLB7v160006El, symObjAddr: 0x6F60, symBinAddr: 0x100007FF4, symSize: 0x28 }
  - { offsetInCU: 0x10CFD, offset: 0x10CFD, size: 0x8, addend: 0x0, symName: __ZNKSt3__16vectorIP5BloonNS_9allocatorIS2_EEE6cbeginB7v160006Ev, symObjAddr: 0x6FD0, symBinAddr: 0x100008064, symSize: 0x2C }
  - { offsetInCU: 0x10D22, offset: 0x10D22, size: 0x8, addend: 0x0, symName: __ZNSt3__16vectorIP5BloonNS_9allocatorIS2_EEE17__destruct_at_endB7v160006EPS2_, symObjAddr: 0x6FFC, symBinAddr: 0x100008090, symSize: 0x88 }
  - { offsetInCU: 0x10D65, offset: 0x10D65, size: 0x8, addend: 0x0, symName: __ZNSt3__16vectorIP5BloonNS_9allocatorIS2_EEE27__invalidate_iterators_pastB7v160006EPS2_, symObjAddr: 0x70C4, symBinAddr: 0x100008158, symSize: 0x14 }
  - { offsetInCU: 0x10D9B, offset: 0x10D9B, size: 0x8, addend: 0x0, symName: __ZNKSt3__111__wrap_iterIPKP5BloonE4baseB7v160006Ev, symObjAddr: 0x70D8, symBinAddr: 0x10000816C, symSize: 0x18 }
  - { offsetInCU: 0x10DBF, offset: 0x10DBF, size: 0x8, addend: 0x0, symName: __ZNKSt3__16vectorIP5BloonNS_9allocatorIS2_EEE5beginB7v160006Ev, symObjAddr: 0x70F0, symBinAddr: 0x100008184, symSize: 0x30 }
  - { offsetInCU: 0x10DE6, offset: 0x10DE6, size: 0x8, addend: 0x0, symName: __ZNKSt3__16vectorIP5BloonNS_9allocatorIS2_EEE11__make_iterB7v160006EPKS2_, symObjAddr: 0x7120, symBinAddr: 0x1000081B4, symSize: 0x34 }
  - { offsetInCU: 0x10E1A, offset: 0x10E1A, size: 0x8, addend: 0x0, symName: __ZNSt3__111__wrap_iterIPKP5BloonEC1B7v160006EPKvS4_, symObjAddr: 0x7154, symBinAddr: 0x1000081E8, symSize: 0x3C }
  - { offsetInCU: 0x10E5F, offset: 0x10E5F, size: 0x8, addend: 0x0, symName: __ZNSt3__111__wrap_iterIPKP5BloonEC2B7v160006EPKvS4_, symObjAddr: 0x7190, symBinAddr: 0x100008224, symSize: 0x24 }
  - { offsetInCU: 0x10EA4, offset: 0x10EA4, size: 0x8, addend: 0x0, symName: __ZNKSt3__16vectorIP5BloonNS_9allocatorIS2_EEE17__annotate_shrinkB7v160006Em, symObjAddr: 0x71B4, symBinAddr: 0x100008248, symSize: 0xB4 }
  - { offsetInCU: 0x10EFB, offset: 0x10EFB, size: 0x8, addend: 0x0, symName: __ZNKSt3__114__move_trivialclB7v160006IP5BloonS3_Li0EEENS_4pairIPT_PT0_EES6_S6_S8_, symObjAddr: 0x7414, symBinAddr: 0x1000084A8, symSize: 0x48 }
  - { offsetInCU: 0x10F62, offset: 0x10F62, size: 0x8, addend: 0x0, symName: __ZNSt3__14pairIPP5BloonS3_EC1B7v160006ERKS3_S6_, symObjAddr: 0x75F0, symBinAddr: 0x100008684, symSize: 0x3C }
  - { offsetInCU: 0x10FA7, offset: 0x10FA7, size: 0x8, addend: 0x0, symName: __ZNSt3__14pairIPP5BloonS3_EC2B7v160006ERKS3_S6_, symObjAddr: 0x762C, symBinAddr: 0x1000086C0, symSize: 0x34 }
  - { offsetInCU: 0x10FEC, offset: 0x10FEC, size: 0x8, addend: 0x0, symName: __ZNSt3__118__unwrap_iter_implIPP5BloonLb1EE8__unwrapB7v160006ES3_, symObjAddr: 0x7660, symBinAddr: 0x1000086F4, symSize: 0x24 }
  - { offsetInCU: 0x1100F, offset: 0x1100F, size: 0x8, addend: 0x0, symName: __ZNSt3__118__unwrap_iter_implIPP5BloonLb1EE8__rewrapB7v160006ES3_S3_, symObjAddr: 0x7684, symBinAddr: 0x100008718, symSize: 0x50 }
  - { offsetInCU: 0x11040, offset: 0x11040, size: 0x8, addend: 0x0, symName: __ZNSt3__111__wrap_iterIPKP5BloonEC2B7v160006IPS2_EERKNS0_IT_EEPNS_9enable_ifIXsr14is_convertibleIS8_S4_EE5valueEvE4typeE, symObjAddr: 0x76D4, symBinAddr: 0x100008768, symSize: 0x40 }
  - { offsetInCU: 0x1108B, offset: 0x1108B, size: 0x8, addend: 0x0, symName: __ZNKSt3__111__wrap_iterIPP5BloonE4baseB7v160006Ev, symObjAddr: 0x7714, symBinAddr: 0x1000087A8, symSize: 0x18 }
  - { offsetInCU: 0x5CC3, offset: 0x16EC6, size: 0x8, addend: 0x0, symName: __ZN5BloonC2Ev, symObjAddr: 0x0, symBinAddr: 0x1000087C0, symSize: 0x2C }
  - { offsetInCU: 0x5CEE, offset: 0x16EF1, size: 0x8, addend: 0x0, symName: __ZN5BloonC2Eii, symObjAddr: 0x2C, symBinAddr: 0x1000087EC, symSize: 0x3C }
  - { offsetInCU: 0x5D35, offset: 0x16F38, size: 0x8, addend: 0x0, symName: __ZN5BloonD2Ev, symObjAddr: 0x68, symBinAddr: 0x100008828, symSize: 0x14 }
  - { offsetInCU: 0x5D60, offset: 0x16F63, size: 0x8, addend: 0x0, symName: __ZN5BloonD1Ev, symObjAddr: 0x7C, symBinAddr: 0x10000883C, symSize: 0x14 }
  - { offsetInCU: 0x5D8B, offset: 0x16F8E, size: 0x8, addend: 0x0, symName: __ZN5BloonD0Ev, symObjAddr: 0x90, symBinAddr: 0x100008850, symSize: 0xC }
  - { offsetInCU: 0x5DB6, offset: 0x16FB9, size: 0x8, addend: 0x0, symName: __ZN5Bloon9GetHealthEv, symObjAddr: 0x9C, symBinAddr: 0x10000885C, symSize: 0x18 }
  - { offsetInCU: 0x5DDD, offset: 0x16FE0, size: 0x8, addend: 0x0, symName: __ZN5Bloon9SetHealthEi, symObjAddr: 0xB4, symBinAddr: 0x100008874, symSize: 0x20 }
  - { offsetInCU: 0x5E12, offset: 0x17015, size: 0x8, addend: 0x0, symName: __ZN5Bloon11GetLocationEv, symObjAddr: 0xD4, symBinAddr: 0x100008894, symSize: 0x18 }
  - { offsetInCU: 0x5E39, offset: 0x1703C, size: 0x8, addend: 0x0, symName: __ZN5Bloon11SetLocationEi, symObjAddr: 0xEC, symBinAddr: 0x1000088AC, symSize: 0x20 }
  - { offsetInCU: 0x5E6E, offset: 0x17071, size: 0x8, addend: 0x0, symName: __ZlsRNSt3__113basic_ostreamIcNS_11char_traitsIcEEEER5Bloon, symObjAddr: 0x10C, symBinAddr: 0x1000088CC, symSize: 0xD0 }
  - { offsetInCU: 0x5ED7, offset: 0x1CFAF, size: 0x8, addend: 0x0, symName: __ZN6MonkeyC2Ev, symObjAddr: 0x0, symBinAddr: 0x10000899C, symSize: 0x90 }
  - { offsetInCU: 0x5F02, offset: 0x1CFDA, size: 0x8, addend: 0x0, symName: __ZNSt3__112basic_stringIcNS_11char_traitsIcEENS_9allocatorIcEEEC1B7v160006Ev, symObjAddr: 0x90, symBinAddr: 0x100008A2C, symSize: 0x2C }
  - { offsetInCU: 0x5F2B, offset: 0x1D003, size: 0x8, addend: 0x0, symName: __ZNSt3__112basic_stringIcNS_11char_traitsIcEENS_9allocatorIcEEEaSB7v160006EPKc, symObjAddr: 0xBC, symBinAddr: 0x100008A58, symSize: 0x2C }
  - { offsetInCU: 0x5F5F, offset: 0x1D037, size: 0x8, addend: 0x0, symName: __ZN6MonkeyC2ENSt3__112basic_stringIcNS0_11char_traitsIcEENS0_9allocatorIcEEEEii, symObjAddr: 0xF4, symBinAddr: 0x100008A84, symSize: 0xA4 }
  - { offsetInCU: 0x5FB5, offset: 0x1D08D, size: 0x8, addend: 0x0, symName: __ZN6MonkeyD2Ev, symObjAddr: 0x198, symBinAddr: 0x100008B28, symSize: 0x8C }
  - { offsetInCU: 0x5FE0, offset: 0x1D0B8, size: 0x8, addend: 0x0, symName: __ZN6MonkeyD1Ev, symObjAddr: 0x224, symBinAddr: 0x100008BB4, symSize: 0x14 }
  - { offsetInCU: 0x600B, offset: 0x1D0E3, size: 0x8, addend: 0x0, symName: __ZN6MonkeyD0Ev, symObjAddr: 0x238, symBinAddr: 0x100008BC8, symSize: 0xC }
  - { offsetInCU: 0x6036, offset: 0x1D10E, size: 0x8, addend: 0x0, symName: __ZN6Monkey9GetDamageEv, symObjAddr: 0x244, symBinAddr: 0x100008BD4, symSize: 0x18 }
  - { offsetInCU: 0x605C, offset: 0x1D134, size: 0x8, addend: 0x0, symName: __ZN6Monkey7GetTypeEv, symObjAddr: 0x25C, symBinAddr: 0x100008BEC, symSize: 0x3C }
  - { offsetInCU: 0x6083, offset: 0x1D15B, size: 0x8, addend: 0x0, symName: __ZN6Monkey11GetLocationEv, symObjAddr: 0x298, symBinAddr: 0x100008C28, symSize: 0x18 }
  - { offsetInCU: 0x60AA, offset: 0x1D182, size: 0x8, addend: 0x0, symName: __ZN6Monkey9SetDamageEi, symObjAddr: 0x2B0, symBinAddr: 0x100008C40, symSize: 0x20 }
  - { offsetInCU: 0x60DF, offset: 0x1D1B7, size: 0x8, addend: 0x0, symName: __ZN6Monkey7SetTypeENSt3__112basic_stringIcNS0_11char_traitsIcEENS0_9allocatorIcEEEE, symObjAddr: 0x2D0, symBinAddr: 0x100008C60, symSize: 0x30 }
  - { offsetInCU: 0x6115, offset: 0x1D1ED, size: 0x8, addend: 0x0, symName: __ZN6Monkey11SetLocationEi, symObjAddr: 0x300, symBinAddr: 0x100008C90, symSize: 0x20 }
  - { offsetInCU: 0x614A, offset: 0x1D222, size: 0x8, addend: 0x0, symName: __ZlsRNSt3__113basic_ostreamIcNS_11char_traitsIcEEEER6Monkey, symObjAddr: 0x320, symBinAddr: 0x100008CB0, symSize: 0xE4 }
  - { offsetInCU: 0x6184, offset: 0x1D25C, size: 0x8, addend: 0x0, symName: __ZNSt3__112basic_stringIcNS_11char_traitsIcEENS_9allocatorIcEEEC2B7v160006Ev, symObjAddr: 0x498, symBinAddr: 0x100008D94, symSize: 0x44 }
  - { offsetInCU: 0x61AD, offset: 0x1D285, size: 0x8, addend: 0x0, symName: __ZNSt3__112basic_stringIcNS_11char_traitsIcEENS_9allocatorIcEEE14__default_initB7v160006Ev, symObjAddr: 0x528, symBinAddr: 0x100008DD8, symSize: 0xB0 }
  - { offsetInCU: 0x61FF, offset: 0x1D2D7, size: 0x8, addend: 0x0, symName: __ZNSt3__117__compressed_pairINS_12basic_stringIcNS_11char_traitsIcEENS_9allocatorIcEEE5__repES5_E5firstB7v160006Ev, symObjAddr: 0x694, symBinAddr: 0x100008E88, symSize: 0x24 }
  - { offsetInCU: 0x6225, offset: 0x1D2FD, size: 0x8, addend: 0x0, symName: __ZNSt3__112basic_stringIcNS_11char_traitsIcEENS_9allocatorIcEEE11__recommendB7v160006Em, symObjAddr: 0x6C4, symBinAddr: 0x100008EAC, symSize: 0x9C }
  - { offsetInCU: 0x6258, offset: 0x1D330, size: 0x8, addend: 0x0, symName: __ZNSt3__116allocator_traitsINS_9allocatorIcEEE8allocateB7v160006ERS2_m, symObjAddr: 0x760, symBinAddr: 0x100008F48, symSize: 0x2C }
  - { offsetInCU: 0x628A, offset: 0x1D362, size: 0x8, addend: 0x0, symName: __ZNSt3__112basic_stringIcNS_11char_traitsIcEENS_9allocatorIcEEE7__allocB7v160006Ev, symObjAddr: 0x78C, symBinAddr: 0x100008F74, symSize: 0x24 }
  - { offsetInCU: 0x62B0, offset: 0x1D388, size: 0x8, addend: 0x0, symName: __ZNSt3__112basic_stringIcNS_11char_traitsIcEENS_9allocatorIcEEE16__begin_lifetimeB7v160006EPcm, symObjAddr: 0x7B0, symBinAddr: 0x100008F98, symSize: 0x14 }
  - { offsetInCU: 0x62E2, offset: 0x1D3BA, size: 0x8, addend: 0x0, symName: __ZNSt3__112basic_stringIcNS_11char_traitsIcEENS_9allocatorIcEEE18__set_long_pointerB7v160006EPc, symObjAddr: 0x7C4, symBinAddr: 0x100008FAC, symSize: 0x38 }
  - { offsetInCU: 0x6316, offset: 0x1D3EE, size: 0x8, addend: 0x0, symName: __ZNSt3__112basic_stringIcNS_11char_traitsIcEENS_9allocatorIcEEE14__set_long_capB7v160006Em, symObjAddr: 0x7FC, symBinAddr: 0x100008FE4, symSize: 0x70 }
  - { offsetInCU: 0x634A, offset: 0x1D422, size: 0x8, addend: 0x0, symName: __ZNSt3__112basic_stringIcNS_11char_traitsIcEENS_9allocatorIcEEE15__set_long_sizeB7v160006Em, symObjAddr: 0x86C, symBinAddr: 0x100009054, symSize: 0x38 }
  - { offsetInCU: 0x637F, offset: 0x1D457, size: 0x8, addend: 0x0, symName: __ZNSt3__122__compressed_pair_elemINS_12basic_stringIcNS_11char_traitsIcEENS_9allocatorIcEEE5__repELi0ELb0EE5__getB7v160006Ev, symObjAddr: 0x8A4, symBinAddr: 0x10000908C, symSize: 0x14 }
  - { offsetInCU: 0x63A4, offset: 0x1D47C, size: 0x8, addend: 0x0, symName: __ZNSt3__112basic_stringIcNS_11char_traitsIcEENS_9allocatorIcEEE10__align_itB7v160006ILm16EEEmm, symObjAddr: 0x8B8, symBinAddr: 0x1000090A0, symSize: 0x1C }
  - { offsetInCU: 0x63D1, offset: 0x1D4A9, size: 0x8, addend: 0x0, symName: __ZNSt3__19allocatorIcE8allocateB7v160006Em, symObjAddr: 0x8D4, symBinAddr: 0x1000090BC, symSize: 0x84 }
  - { offsetInCU: 0x640F, offset: 0x1D4E7, size: 0x8, addend: 0x0, symName: __ZNSt3__116allocator_traitsINS_9allocatorIcEEE8max_sizeB7v160006IS2_vEEmRKS2_, symObjAddr: 0x958, symBinAddr: 0x100009140, symSize: 0x24 }
  - { offsetInCU: 0x643D, offset: 0x1D515, size: 0x8, addend: 0x0, symName: __ZNKSt3__19allocatorIcE8max_sizeB7v160006Ev, symObjAddr: 0x9D8, symBinAddr: 0x100009164, symSize: 0x14 }
  - { offsetInCU: 0x6461, offset: 0x1D539, size: 0x8, addend: 0x0, symName: __ZNSt3__117__compressed_pairINS_12basic_stringIcNS_11char_traitsIcEENS_9allocatorIcEEE5__repES5_E6secondB7v160006Ev, symObjAddr: 0xA10, symBinAddr: 0x100009178, symSize: 0x24 }
  - { offsetInCU: 0x6487, offset: 0x1D55F, size: 0x8, addend: 0x0, symName: __ZNSt3__122__compressed_pair_elemINS_9allocatorIcEELi1ELb1EE5__getB7v160006Ev, symObjAddr: 0xA34, symBinAddr: 0x10000919C, symSize: 0x14 }
  - { offsetInCU: 0x48D9, offset: 0x21E98, size: 0x8, addend: 0x0, symName: __ZN5BasicC2Ev, symObjAddr: 0x0, symBinAddr: 0x1000091B0, symSize: 0xBC }
  - { offsetInCU: 0x4904, offset: 0x21EC3, size: 0x8, addend: 0x0, symName: __ZN5BasicC1Ev, symObjAddr: 0x120, symBinAddr: 0x10000926C, symSize: 0x2C }
  - { offsetInCU: 0x492F, offset: 0x21EEE, size: 0x8, addend: 0x0, symName: __ZN5BasicC2Eii, symObjAddr: 0x14C, symBinAddr: 0x100009298, symSize: 0x19C }
  - { offsetInCU: 0x4976, offset: 0x21F35, size: 0x8, addend: 0x0, symName: __ZN5BasicC1Eii, symObjAddr: 0x2FC, symBinAddr: 0x100009448, symSize: 0x3C }
  - { offsetInCU: 0x49BD, offset: 0x21F7C, size: 0x8, addend: 0x0, symName: __ZN5BasicD2Ev, symObjAddr: 0x338, symBinAddr: 0x100009484, symSize: 0x78 }
  - { offsetInCU: 0x49E8, offset: 0x21FA7, size: 0x8, addend: 0x0, symName: __ZN5BasicD1Ev, symObjAddr: 0x3B0, symBinAddr: 0x1000094FC, symSize: 0x2C }
  - { offsetInCU: 0x4A13, offset: 0x21FD2, size: 0x8, addend: 0x0, symName: __ZN5BasicD0Ev, symObjAddr: 0x3DC, symBinAddr: 0x100009528, symSize: 0x58 }
  - { offsetInCU: 0x4A3E, offset: 0x21FFD, size: 0x8, addend: 0x0, symName: __ZN5Basic3PopEi, symObjAddr: 0x434, symBinAddr: 0x100009580, symSize: 0x31C }
  - { offsetInCU: 0x4A91, offset: 0x22050, size: 0x8, addend: 0x0, symName: __ZN5Basic8GetColorEv, symObjAddr: 0x87C, symBinAddr: 0x1000098B0, symSize: 0x3C }
  - { offsetInCU: 0x53C1, offset: 0x2743D, size: 0x8, addend: 0x0, symName: __ZN4BombC2Ev, symObjAddr: 0x0, symBinAddr: 0x1000098EC, symSize: 0xC0 }
  - { offsetInCU: 0x53F1, offset: 0x2746D, size: 0x8, addend: 0x0, symName: __ZN4BombC1Ev, symObjAddr: 0x100, symBinAddr: 0x1000099AC, symSize: 0x2C }
  - { offsetInCU: 0x541C, offset: 0x27498, size: 0x8, addend: 0x0, symName: __ZN4BombC2ENSt3__112basic_stringIcNS0_11char_traitsIcEENS0_9allocatorIcEEEEii, symObjAddr: 0x12C, symBinAddr: 0x1000099D8, symSize: 0xA4 }
  - { offsetInCU: 0x5472, offset: 0x274EE, size: 0x8, addend: 0x0, symName: __ZN4BombC1ENSt3__112basic_stringIcNS0_11char_traitsIcEENS0_9allocatorIcEEEEii, symObjAddr: 0x1D0, symBinAddr: 0x100009A7C, symSize: 0x44 }
  - { offsetInCU: 0x54C8, offset: 0x27544, size: 0x8, addend: 0x0, symName: __ZN4BombD2Ev, symObjAddr: 0x214, symBinAddr: 0x100009AC0, symSize: 0xD8 }
  - { offsetInCU: 0x54F3, offset: 0x2756F, size: 0x8, addend: 0x0, symName: __ZN4BombD1Ev, symObjAddr: 0x2EC, symBinAddr: 0x100009B98, symSize: 0x2C }
  - { offsetInCU: 0x551E, offset: 0x2759A, size: 0x8, addend: 0x0, symName: __ZN4BombD0Ev, symObjAddr: 0x318, symBinAddr: 0x100009BC4, symSize: 0x58 }
  - { offsetInCU: 0x5549, offset: 0x275C5, size: 0x8, addend: 0x0, symName: __ZN4Bomb6AttackENSt3__16vectorIP5BloonNS0_9allocatorIS3_EEEE, symObjAddr: 0x370, symBinAddr: 0x100009C1C, symSize: 0x11C }
  - { offsetInCU: 0x53B9, offset: 0x2C9E4, size: 0x8, addend: 0x0, symName: __ZN4DartC2Ev, symObjAddr: 0x0, symBinAddr: 0x100009D38, symSize: 0xC0 }
  - { offsetInCU: 0x53E9, offset: 0x2CA14, size: 0x8, addend: 0x0, symName: __ZN4DartC1Ev, symObjAddr: 0x100, symBinAddr: 0x100009DF8, symSize: 0x2C }
  - { offsetInCU: 0x5414, offset: 0x2CA3F, size: 0x8, addend: 0x0, symName: __ZN4DartC2ENSt3__112basic_stringIcNS0_11char_traitsIcEENS0_9allocatorIcEEEEii, symObjAddr: 0x12C, symBinAddr: 0x100009E24, symSize: 0xA4 }
  - { offsetInCU: 0x546A, offset: 0x2CA95, size: 0x8, addend: 0x0, symName: __ZN4DartC1ENSt3__112basic_stringIcNS0_11char_traitsIcEENS0_9allocatorIcEEEEii, symObjAddr: 0x1D0, symBinAddr: 0x100009EC8, symSize: 0x44 }
  - { offsetInCU: 0x54C0, offset: 0x2CAEB, size: 0x8, addend: 0x0, symName: __ZN4DartD2Ev, symObjAddr: 0x214, symBinAddr: 0x100009F0C, symSize: 0xD4 }
  - { offsetInCU: 0x54EB, offset: 0x2CB16, size: 0x8, addend: 0x0, symName: __ZN4DartD1Ev, symObjAddr: 0x2E8, symBinAddr: 0x100009FE0, symSize: 0x2C }
  - { offsetInCU: 0x5516, offset: 0x2CB41, size: 0x8, addend: 0x0, symName: __ZN4DartD0Ev, symObjAddr: 0x314, symBinAddr: 0x10000A00C, symSize: 0x58 }
  - { offsetInCU: 0x5541, offset: 0x2CB6C, size: 0x8, addend: 0x0, symName: __ZN4Dart6AttackENSt3__16vectorIP5BloonNS0_9allocatorIS3_EEEE, symObjAddr: 0x36C, symBinAddr: 0x10000A064, symSize: 0x118 }
  - { offsetInCU: 0x53B9, offset: 0x31F7D, size: 0x8, addend: 0x0, symName: __ZN9BoomerangC2Ev, symObjAddr: 0x0, symBinAddr: 0x10000A17C, symSize: 0xC0 }
  - { offsetInCU: 0x53E9, offset: 0x31FAD, size: 0x8, addend: 0x0, symName: __ZN9BoomerangC1Ev, symObjAddr: 0x100, symBinAddr: 0x10000A23C, symSize: 0x2C }
  - { offsetInCU: 0x5414, offset: 0x31FD8, size: 0x8, addend: 0x0, symName: __ZN9BoomerangC2ENSt3__112basic_stringIcNS0_11char_traitsIcEENS0_9allocatorIcEEEEii, symObjAddr: 0x12C, symBinAddr: 0x10000A268, symSize: 0xA4 }
  - { offsetInCU: 0x546A, offset: 0x3202E, size: 0x8, addend: 0x0, symName: __ZN9BoomerangC1ENSt3__112basic_stringIcNS0_11char_traitsIcEENS0_9allocatorIcEEEEii, symObjAddr: 0x1D0, symBinAddr: 0x10000A30C, symSize: 0x44 }
  - { offsetInCU: 0x54C0, offset: 0x32084, size: 0x8, addend: 0x0, symName: __ZN9BoomerangD2Ev, symObjAddr: 0x214, symBinAddr: 0x10000A350, symSize: 0xD8 }
  - { offsetInCU: 0x54EB, offset: 0x320AF, size: 0x8, addend: 0x0, symName: __ZN9BoomerangD1Ev, symObjAddr: 0x2EC, symBinAddr: 0x10000A428, symSize: 0x2C }
  - { offsetInCU: 0x5516, offset: 0x320DA, size: 0x8, addend: 0x0, symName: __ZN9BoomerangD0Ev, symObjAddr: 0x318, symBinAddr: 0x10000A454, symSize: 0x58 }
  - { offsetInCU: 0x5541, offset: 0x32105, size: 0x8, addend: 0x0, symName: __ZN9Boomerang6AttackENSt3__16vectorIP5BloonNS0_9allocatorIS3_EEEE, symObjAddr: 0x370, symBinAddr: 0x10000A4AC, symSize: 0x168 }
  - { offsetInCU: 0x26, offset: 0x32191, size: 0x8, addend: 0x0, symName: _main, symObjAddr: 0x0, symBinAddr: 0x10000A614, symSize: 0x78 }
  - { offsetInCU: 0x5BBD, offset: 0x37D28, size: 0x8, addend: 0x0, symName: _main, symObjAddr: 0x0, symBinAddr: 0x10000A614, symSize: 0x78 }
...
